	.file	"Gam.cpp"
	.text
	.section	.text$_ZNSt9exceptionC2Ev,"x"
	.linkonce discard
	.align 2
	.globl	_ZNSt9exceptionC2Ev
	.def	_ZNSt9exceptionC2Ev;	.scl	2;	.type	32;	.endef
	.seh_proc	_ZNSt9exceptionC2Ev
_ZNSt9exceptionC2Ev:
.LFB60:
	pushq	%rbp
	.seh_pushreg	%rbp
	movq	%rsp, %rbp
	.seh_setframe	%rbp, 0
	.seh_endprologue
	movq	%rcx, 16(%rbp)
	movq	.refptr._ZTVSt9exception(%rip), %rax
	leaq	16(%rax), %rdx
	movq	16(%rbp), %rax
	movq	%rdx, (%rax)
	nop
	popq	%rbp
	ret
	.seh_endproc
	.section	.text$_ZnwyPv,"x"
	.linkonce discard
	.globl	_ZnwyPv
	.def	_ZnwyPv;	.scl	2;	.type	32;	.endef
	.seh_proc	_ZnwyPv
_ZnwyPv:
.LFB83:
	pushq	%rbp
	.seh_pushreg	%rbp
	movq	%rsp, %rbp
	.seh_setframe	%rbp, 0
	.seh_endprologue
	movq	%rcx, 16(%rbp)
	movq	%rdx, 24(%rbp)
	movq	24(%rbp), %rax
	popq	%rbp
	ret
	.seh_endproc
	.section	.text$_ZNSt15__exception_ptr13exception_ptrC1EOS0_,"x"
	.linkonce discard
	.align 2
	.globl	_ZNSt15__exception_ptr13exception_ptrC1EOS0_
	.def	_ZNSt15__exception_ptr13exception_ptrC1EOS0_;	.scl	2;	.type	32;	.endef
	.seh_proc	_ZNSt15__exception_ptr13exception_ptrC1EOS0_
_ZNSt15__exception_ptr13exception_ptrC1EOS0_:
.LFB92:
	pushq	%rbp
	.seh_pushreg	%rbp
	movq	%rsp, %rbp
	.seh_setframe	%rbp, 0
	.seh_endprologue
	movq	%rcx, 16(%rbp)
	movq	%rdx, 24(%rbp)
	movq	24(%rbp), %rax
	movq	(%rax), %rdx
	movq	16(%rbp), %rax
	movq	%rdx, (%rax)
	movq	24(%rbp), %rax
	movq	$0, (%rax)
	nop
	popq	%rbp
	ret
	.seh_endproc
	.section	.text$_ZNSt15__exception_ptr13exception_ptraSEOS0_,"x"
	.linkonce discard
	.align 2
	.globl	_ZNSt15__exception_ptr13exception_ptraSEOS0_
	.def	_ZNSt15__exception_ptr13exception_ptraSEOS0_;	.scl	2;	.type	32;	.endef
	.seh_proc	_ZNSt15__exception_ptr13exception_ptraSEOS0_
_ZNSt15__exception_ptr13exception_ptraSEOS0_:
.LFB93:
	pushq	%rbp
	.seh_pushreg	%rbp
	movq	%rsp, %rbp
	.seh_setframe	%rbp, 0
	subq	$48, %rsp
	.seh_stackalloc	48
	.seh_endprologue
	movq	%rcx, 16(%rbp)
	movq	%rdx, 24(%rbp)
	movq	24(%rbp), %rdx
	leaq	-8(%rbp), %rax
	movq	%rax, %rcx
	call	_ZNSt15__exception_ptr13exception_ptrC1EOS0_
	leaq	-8(%rbp), %rax
	movq	16(%rbp), %rdx
	movq	%rax, %rcx
	call	_ZNSt15__exception_ptr13exception_ptr4swapERS0_
	leaq	-8(%rbp), %rax
	movq	%rax, %rcx
	call	_ZNSt15__exception_ptr13exception_ptrD1Ev
	movq	16(%rbp), %rax
	addq	$48, %rsp
	popq	%rbp
	ret
	.seh_endproc
	.section .rdata,"dr"
_ZStL19piecewise_construct:
	.space 1
	.section	.text$_ZNSt11char_traitsIcE7compareEPKcS2_y,"x"
	.linkonce discard
	.globl	_ZNSt11char_traitsIcE7compareEPKcS2_y
	.def	_ZNSt11char_traitsIcE7compareEPKcS2_y;	.scl	2;	.type	32;	.endef
	.seh_proc	_ZNSt11char_traitsIcE7compareEPKcS2_y
_ZNSt11char_traitsIcE7compareEPKcS2_y:
.LFB470:
	pushq	%rbp
	.seh_pushreg	%rbp
	movq	%rsp, %rbp
	.seh_setframe	%rbp, 0
	subq	$32, %rsp
	.seh_stackalloc	32
	.seh_endprologue
	movq	%rcx, 16(%rbp)
	movq	%rdx, 24(%rbp)
	movq	%r8, 32(%rbp)
	cmpq	$0, 32(%rbp)
	jne	.L8
	movl	$0, %eax
	jmp	.L9
.L8:
	movq	32(%rbp), %rdx
	movq	24(%rbp), %rax
	movq	%rdx, %r8
	movq	%rax, %rdx
	movq	16(%rbp), %rcx
	call	memcmp
	nop
.L9:
	addq	$32, %rsp
	popq	%rbp
	ret
	.seh_endproc
	.text
	.def	time;	.scl	3;	.type	32;	.endef
	.seh_proc	time
time:
.LFB545:
	pushq	%rbp
	.seh_pushreg	%rbp
	movq	%rsp, %rbp
	.seh_setframe	%rbp, 0
	subq	$32, %rsp
	.seh_stackalloc	32
	.seh_endprologue
	movq	%rcx, 16(%rbp)
	movq	16(%rbp), %rcx
	movq	__imp__time64(%rip), %rax
	call	*%rax
	addq	$32, %rsp
	popq	%rbp
	ret
	.seh_endproc
	.def	localtime_s;	.scl	3;	.type	32;	.endef
	.seh_proc	localtime_s
localtime_s:
.LFB548:
	pushq	%rbp
	.seh_pushreg	%rbp
	movq	%rsp, %rbp
	.seh_setframe	%rbp, 0
	subq	$32, %rsp
	.seh_stackalloc	32
	.seh_endprologue
	movq	%rcx, 16(%rbp)
	movq	%rdx, 24(%rbp)
	movq	24(%rbp), %rax
	movq	%rax, %rdx
	movq	16(%rbp), %rcx
	movq	__imp__localtime64_s(%rip), %rax
	call	*%rax
	addq	$32, %rsp
	popq	%rbp
	ret
	.seh_endproc
	.def	ctime;	.scl	3;	.type	32;	.endef
	.seh_proc	ctime
ctime:
.LFB551:
	pushq	%rbp
	.seh_pushreg	%rbp
	movq	%rsp, %rbp
	.seh_setframe	%rbp, 0
	subq	$32, %rsp
	.seh_stackalloc	32
	.seh_endprologue
	movq	%rcx, 16(%rbp)
	movq	16(%rbp), %rcx
	movq	__imp__ctime64(%rip), %rax
	call	*%rax
	addq	$32, %rsp
	popq	%rbp
	ret
	.seh_endproc
	.def	_ZL18__gthread_active_pv;	.scl	3;	.type	32;	.endef
	.seh_proc	_ZL18__gthread_active_pv
_ZL18__gthread_active_pv:
.LFB555:
	pushq	%rbp
	.seh_pushreg	%rbp
	movq	%rsp, %rbp
	.seh_setframe	%rbp, 0
	.seh_endprologue
	movl	$1, %eax
	popq	%rbp
	ret
	.seh_endproc
	.def	_ZL14__gthread_oncePlPFvvE;	.scl	3;	.type	32;	.endef
	.seh_proc	_ZL14__gthread_oncePlPFvvE
_ZL14__gthread_oncePlPFvvE:
.LFB562:
	pushq	%rbp
	.seh_pushreg	%rbp
	movq	%rsp, %rbp
	.seh_setframe	%rbp, 0
	subq	$32, %rsp
	.seh_stackalloc	32
	.seh_endprologue
	movq	%rcx, 16(%rbp)
	movq	%rdx, 24(%rbp)
	call	_ZL18__gthread_active_pv
	testl	%eax, %eax
	setne	%al
	testb	%al, %al
	je	.L19
	movq	24(%rbp), %rax
	movq	%rax, %rdx
	movq	16(%rbp), %rcx
	call	pthread_once
	jmp	.L20
.L19:
	movl	$-1, %eax
.L20:
	addq	$32, %rsp
	popq	%rbp
	ret
	.seh_endproc
	.def	_ZL29__gthread_mutex_init_functionPx;	.scl	3;	.type	32;	.endef
	.seh_proc	_ZL29__gthread_mutex_init_functionPx
_ZL29__gthread_mutex_init_functionPx:
.LFB567:
	pushq	%rbp
	.seh_pushreg	%rbp
	movq	%rsp, %rbp
	.seh_setframe	%rbp, 0
	subq	$32, %rsp
	.seh_stackalloc	32
	.seh_endprologue
	movq	%rcx, 16(%rbp)
	call	_ZL18__gthread_active_pv
	testl	%eax, %eax
	setne	%al
	testb	%al, %al
	je	.L23
	movl	$0, %edx
	movq	16(%rbp), %rcx
	call	pthread_mutex_init
.L23:
	nop
	addq	$32, %rsp
	popq	%rbp
	ret
	.seh_endproc
	.def	_ZL23__gthread_mutex_destroyPx;	.scl	3;	.type	32;	.endef
	.seh_proc	_ZL23__gthread_mutex_destroyPx
_ZL23__gthread_mutex_destroyPx:
.LFB568:
	pushq	%rbp
	.seh_pushreg	%rbp
	movq	%rsp, %rbp
	.seh_setframe	%rbp, 0
	subq	$32, %rsp
	.seh_stackalloc	32
	.seh_endprologue
	movq	%rcx, 16(%rbp)
	call	_ZL18__gthread_active_pv
	testl	%eax, %eax
	setne	%al
	testb	%al, %al
	je	.L25
	movq	16(%rbp), %rcx
	call	pthread_mutex_destroy
	jmp	.L26
.L25:
	movl	$0, %eax
.L26:
	addq	$32, %rsp
	popq	%rbp
	ret
	.seh_endproc
	.def	_ZL20__gthread_mutex_lockPx;	.scl	3;	.type	32;	.endef
	.seh_proc	_ZL20__gthread_mutex_lockPx
_ZL20__gthread_mutex_lockPx:
.LFB569:
	pushq	%rbp
	.seh_pushreg	%rbp
	movq	%rsp, %rbp
	.seh_setframe	%rbp, 0
	subq	$32, %rsp
	.seh_stackalloc	32
	.seh_endprologue
	movq	%rcx, 16(%rbp)
	call	_ZL18__gthread_active_pv
	testl	%eax, %eax
	setne	%al
	testb	%al, %al
	je	.L28
	movq	16(%rbp), %rcx
	call	pthread_mutex_lock
	jmp	.L29
.L28:
	movl	$0, %eax
.L29:
	addq	$32, %rsp
	popq	%rbp
	ret
	.seh_endproc
	.def	_ZL22__gthread_mutex_unlockPx;	.scl	3;	.type	32;	.endef
	.seh_proc	_ZL22__gthread_mutex_unlockPx
_ZL22__gthread_mutex_unlockPx:
.LFB572:
	pushq	%rbp
	.seh_pushreg	%rbp
	movq	%rsp, %rbp
	.seh_setframe	%rbp, 0
	subq	$32, %rsp
	.seh_stackalloc	32
	.seh_endprologue
	movq	%rcx, 16(%rbp)
	call	_ZL18__gthread_active_pv
	testl	%eax, %eax
	setne	%al
	testb	%al, %al
	je	.L31
	movq	16(%rbp), %rcx
	call	pthread_mutex_unlock
	jmp	.L32
.L31:
	movl	$0, %eax
.L32:
	addq	$32, %rsp
	popq	%rbp
	ret
	.seh_endproc
	.def	_ZL24__gthread_cond_timedwaitPxS_PK8timespec;	.scl	3;	.type	32;	.endef
	.seh_proc	_ZL24__gthread_cond_timedwaitPxS_PK8timespec
_ZL24__gthread_cond_timedwaitPxS_PK8timespec:
.LFB582:
	pushq	%rbp
	.seh_pushreg	%rbp
	movq	%rsp, %rbp
	.seh_setframe	%rbp, 0
	subq	$32, %rsp
	.seh_stackalloc	32
	.seh_endprologue
	movq	%rcx, 16(%rbp)
	movq	%rdx, 24(%rbp)
	movq	%r8, 32(%rbp)
	movq	32(%rbp), %rdx
	movq	24(%rbp), %rax
	movq	%rdx, %r8
	movq	%rax, %rdx
	movq	16(%rbp), %rcx
	call	pthread_cond_timedwait
	addq	$32, %rsp
	popq	%rbp
	ret
	.seh_endproc
	.section .rdata,"dr"
.LC0:
	.ascii "stoi\0"
	.section	.text$_ZNSt7__cxx114stoiERKNS_12basic_stringIcSt11char_traitsIcESaIcEEEPyi,"x"
	.linkonce discard
	.globl	_ZNSt7__cxx114stoiERKNS_12basic_stringIcSt11char_traitsIcESaIcEEEPyi
	.def	_ZNSt7__cxx114stoiERKNS_12basic_stringIcSt11char_traitsIcESaIcEEEPyi;	.scl	2;	.type	32;	.endef
	.seh_proc	_ZNSt7__cxx114stoiERKNS_12basic_stringIcSt11char_traitsIcESaIcEEEPyi
_ZNSt7__cxx114stoiERKNS_12basic_stringIcSt11char_traitsIcESaIcEEEPyi:
.LFB1032:
	pushq	%rbp
	.seh_pushreg	%rbp
	movq	%rsp, %rbp
	.seh_setframe	%rbp, 0
	subq	$48, %rsp
	.seh_stackalloc	48
	.seh_endprologue
	movq	%rcx, 16(%rbp)
	movq	%rdx, 24(%rbp)
	movl	%r8d, 32(%rbp)
	movq	16(%rbp), %rcx
	call	_ZNKSt7__cxx1112basic_stringIcSt11char_traitsIcESaIcEE5c_strEv
	movq	%rax, %rdx
	movq	24(%rbp), %rcx
	movl	32(%rbp), %eax
	movl	%eax, 32(%rsp)
	movq	%rcx, %r9
	movq	%rdx, %r8
	leaq	.LC0(%rip), %rdx
	movq	.refptr.strtol(%rip), %rcx
	call	_ZN9__gnu_cxx6__stoaIlicJiEEET0_PFT_PKT1_PPS3_DpT2_EPKcS5_PyS9_
	addq	$48, %rsp
	popq	%rbp
	ret
	.seh_endproc
	.section	.text$_ZNSt10error_codeC1EiRKNSt3_V214error_categoryE,"x"
	.linkonce discard
	.align 2
	.globl	_ZNSt10error_codeC1EiRKNSt3_V214error_categoryE
	.def	_ZNSt10error_codeC1EiRKNSt3_V214error_categoryE;	.scl	2;	.type	32;	.endef
	.seh_proc	_ZNSt10error_codeC1EiRKNSt3_V214error_categoryE
_ZNSt10error_codeC1EiRKNSt3_V214error_categoryE:
.LFB1185:
	pushq	%rbp
	.seh_pushreg	%rbp
	movq	%rsp, %rbp
	.seh_setframe	%rbp, 0
	.seh_endprologue
	movq	%rcx, 16(%rbp)
	movl	%edx, 24(%rbp)
	movq	%r8, 32(%rbp)
	movq	16(%rbp), %rax
	movl	24(%rbp), %edx
	movl	%edx, (%rax)
	movq	16(%rbp), %rax
	movq	32(%rbp), %rdx
	movq	%rdx, 8(%rax)
	nop
	popq	%rbp
	ret
	.seh_endproc
	.section	.text$_ZNKSt10error_code5valueEv,"x"
	.linkonce discard
	.align 2
	.globl	_ZNKSt10error_code5valueEv
	.def	_ZNKSt10error_code5valueEv;	.scl	2;	.type	32;	.endef
	.seh_proc	_ZNKSt10error_code5valueEv
_ZNKSt10error_code5valueEv:
.LFB1190:
	pushq	%rbp
	.seh_pushreg	%rbp
	movq	%rsp, %rbp
	.seh_setframe	%rbp, 0
	.seh_endprologue
	movq	%rcx, 16(%rbp)
	movq	16(%rbp), %rax
	movl	(%rax), %eax
	popq	%rbp
	ret
	.seh_endproc
	.section	.text$_ZNKSt10error_code8categoryEv,"x"
	.linkonce discard
	.align 2
	.globl	_ZNKSt10error_code8categoryEv
	.def	_ZNKSt10error_code8categoryEv;	.scl	2;	.type	32;	.endef
	.seh_proc	_ZNKSt10error_code8categoryEv
_ZNKSt10error_code8categoryEv:
.LFB1191:
	pushq	%rbp
	.seh_pushreg	%rbp
	movq	%rsp, %rbp
	.seh_setframe	%rbp, 0
	.seh_endprologue
	movq	%rcx, 16(%rbp)
	movq	16(%rbp), %rax
	movq	8(%rax), %rax
	popq	%rbp
	ret
	.seh_endproc
	.section	.text$_ZNKSt10error_code7messageB5cxx11Ev,"x"
	.linkonce discard
	.align 2
	.globl	_ZNKSt10error_code7messageB5cxx11Ev
	.def	_ZNKSt10error_code7messageB5cxx11Ev;	.scl	2;	.type	32;	.endef
	.seh_proc	_ZNKSt10error_code7messageB5cxx11Ev
_ZNKSt10error_code7messageB5cxx11Ev:
.LFB1192:
	pushq	%rbp
	.seh_pushreg	%rbp
	pushq	%rsi
	.seh_pushreg	%rsi
	pushq	%rbx
	.seh_pushreg	%rbx
	movq	%rsp, %rbp
	.seh_setframe	%rbp, 0
	subq	$32, %rsp
	.seh_stackalloc	32
	.seh_endprologue
	movq	%rcx, 32(%rbp)
	movq	%rdx, 40(%rbp)
	movq	40(%rbp), %rax
	movq	%rax, %rcx
	call	_ZNKSt10error_code8categoryEv
	movq	%rax, %rbx
	movq	(%rbx), %rax
	addq	$32, %rax
	movq	(%rax), %rsi
	movq	40(%rbp), %rax
	movq	%rax, %rcx
	call	_ZNKSt10error_code5valueEv
	movl	%eax, %edx
	movq	32(%rbp), %rax
	movl	%edx, %r8d
	movq	%rbx, %rdx
	movq	%rax, %rcx
	call	*%rsi
	movq	32(%rbp), %rax
	addq	$32, %rsp
	popq	%rbx
	popq	%rsi
	popq	%rbp
	ret
	.seh_endproc
	.section	.text$_ZStanSt13_Ios_FmtflagsS_,"x"
	.linkonce discard
	.globl	_ZStanSt13_Ios_FmtflagsS_
	.def	_ZStanSt13_Ios_FmtflagsS_;	.scl	2;	.type	32;	.endef
	.seh_proc	_ZStanSt13_Ios_FmtflagsS_
_ZStanSt13_Ios_FmtflagsS_:
.LFB1241:
	pushq	%rbp
	.seh_pushreg	%rbp
	movq	%rsp, %rbp
	.seh_setframe	%rbp, 0
	.seh_endprologue
	movl	%ecx, 16(%rbp)
	movl	%edx, 24(%rbp)
	movl	16(%rbp), %eax
	andl	24(%rbp), %eax
	popq	%rbp
	ret
	.seh_endproc
	.section	.text$_ZStorSt13_Ios_FmtflagsS_,"x"
	.linkonce discard
	.globl	_ZStorSt13_Ios_FmtflagsS_
	.def	_ZStorSt13_Ios_FmtflagsS_;	.scl	2;	.type	32;	.endef
	.seh_proc	_ZStorSt13_Ios_FmtflagsS_
_ZStorSt13_Ios_FmtflagsS_:
.LFB1242:
	pushq	%rbp
	.seh_pushreg	%rbp
	movq	%rsp, %rbp
	.seh_setframe	%rbp, 0
	.seh_endprologue
	movl	%ecx, 16(%rbp)
	movl	%edx, 24(%rbp)
	movl	16(%rbp), %eax
	orl	24(%rbp), %eax
	popq	%rbp
	ret
	.seh_endproc
	.section	.text$_ZStcoSt13_Ios_Fmtflags,"x"
	.linkonce discard
	.globl	_ZStcoSt13_Ios_Fmtflags
	.def	_ZStcoSt13_Ios_Fmtflags;	.scl	2;	.type	32;	.endef
	.seh_proc	_ZStcoSt13_Ios_Fmtflags
_ZStcoSt13_Ios_Fmtflags:
.LFB1244:
	pushq	%rbp
	.seh_pushreg	%rbp
	movq	%rsp, %rbp
	.seh_setframe	%rbp, 0
	.seh_endprologue
	movl	%ecx, 16(%rbp)
	movl	16(%rbp), %eax
	notl	%eax
	popq	%rbp
	ret
	.seh_endproc
	.section	.text$_ZStoRRSt13_Ios_FmtflagsS_,"x"
	.linkonce discard
	.globl	_ZStoRRSt13_Ios_FmtflagsS_
	.def	_ZStoRRSt13_Ios_FmtflagsS_;	.scl	2;	.type	32;	.endef
	.seh_proc	_ZStoRRSt13_Ios_FmtflagsS_
_ZStoRRSt13_Ios_FmtflagsS_:
.LFB1245:
	pushq	%rbp
	.seh_pushreg	%rbp
	movq	%rsp, %rbp
	.seh_setframe	%rbp, 0
	subq	$32, %rsp
	.seh_stackalloc	32
	.seh_endprologue
	movq	%rcx, 16(%rbp)
	movl	%edx, 24(%rbp)
	movq	16(%rbp), %rax
	movl	(%rax), %eax
	movl	24(%rbp), %edx
	movl	%eax, %ecx
	call	_ZStorSt13_Ios_FmtflagsS_
	movq	16(%rbp), %rdx
	movl	%eax, (%rdx)
	movq	16(%rbp), %rax
	addq	$32, %rsp
	popq	%rbp
	ret
	.seh_endproc
	.section	.text$_ZStaNRSt13_Ios_FmtflagsS_,"x"
	.linkonce discard
	.globl	_ZStaNRSt13_Ios_FmtflagsS_
	.def	_ZStaNRSt13_Ios_FmtflagsS_;	.scl	2;	.type	32;	.endef
	.seh_proc	_ZStaNRSt13_Ios_FmtflagsS_
_ZStaNRSt13_Ios_FmtflagsS_:
.LFB1246:
	pushq	%rbp
	.seh_pushreg	%rbp
	movq	%rsp, %rbp
	.seh_setframe	%rbp, 0
	subq	$32, %rsp
	.seh_stackalloc	32
	.seh_endprologue
	movq	%rcx, 16(%rbp)
	movl	%edx, 24(%rbp)
	movq	16(%rbp), %rax
	movl	(%rax), %eax
	movl	24(%rbp), %edx
	movl	%eax, %ecx
	call	_ZStanSt13_Ios_FmtflagsS_
	movq	16(%rbp), %rdx
	movl	%eax, (%rdx)
	movq	16(%rbp), %rax
	addq	$32, %rsp
	popq	%rbp
	ret
	.seh_endproc
	.section	.text$_ZStorSt13_Ios_OpenmodeS_,"x"
	.linkonce discard
	.globl	_ZStorSt13_Ios_OpenmodeS_
	.def	_ZStorSt13_Ios_OpenmodeS_;	.scl	2;	.type	32;	.endef
	.seh_proc	_ZStorSt13_Ios_OpenmodeS_
_ZStorSt13_Ios_OpenmodeS_:
.LFB1249:
	pushq	%rbp
	.seh_pushreg	%rbp
	movq	%rsp, %rbp
	.seh_setframe	%rbp, 0
	.seh_endprologue
	movl	%ecx, 16(%rbp)
	movl	%edx, 24(%rbp)
	movl	16(%rbp), %eax
	orl	24(%rbp), %eax
	popq	%rbp
	ret
	.seh_endproc
	.section	.text$_ZNSt8ios_base4setfESt13_Ios_FmtflagsS0_,"x"
	.linkonce discard
	.align 2
	.globl	_ZNSt8ios_base4setfESt13_Ios_FmtflagsS0_
	.def	_ZNSt8ios_base4setfESt13_Ios_FmtflagsS0_;	.scl	2;	.type	32;	.endef
	.seh_proc	_ZNSt8ios_base4setfESt13_Ios_FmtflagsS0_
_ZNSt8ios_base4setfESt13_Ios_FmtflagsS0_:
.LFB1275:
	pushq	%rbp
	.seh_pushreg	%rbp
	movq	%rsp, %rbp
	.seh_setframe	%rbp, 0
	subq	$48, %rsp
	.seh_stackalloc	48
	.seh_endprologue
	movq	%rcx, 16(%rbp)
	movl	%edx, 24(%rbp)
	movl	%r8d, 32(%rbp)
	movq	16(%rbp), %rax
	movl	24(%rax), %eax
	movl	%eax, -4(%rbp)
	movl	32(%rbp), %eax
	movl	%eax, %ecx
	call	_ZStcoSt13_Ios_Fmtflags
	movl	%eax, %edx
	movq	16(%rbp), %rax
	addq	$24, %rax
	movq	%rax, %rcx
	call	_ZStaNRSt13_Ios_FmtflagsS_
	movl	32(%rbp), %edx
	movl	24(%rbp), %eax
	movl	%eax, %ecx
	call	_ZStanSt13_Ios_FmtflagsS_
	movl	%eax, %edx
	movq	16(%rbp), %rax
	addq	$24, %rax
	movq	%rax, %rcx
	call	_ZStoRRSt13_Ios_FmtflagsS_
	movl	-4(%rbp), %eax
	addq	$48, %rsp
	popq	%rbp
	ret
	.seh_endproc
	.section	.text$_ZSt4leftRSt8ios_base,"x"
	.linkonce discard
	.globl	_ZSt4leftRSt8ios_base
	.def	_ZSt4leftRSt8ios_base;	.scl	2;	.type	32;	.endef
	.seh_proc	_ZSt4leftRSt8ios_base
_ZSt4leftRSt8ios_base:
.LFB1300:
	pushq	%rbp
	.seh_pushreg	%rbp
	movq	%rsp, %rbp
	.seh_setframe	%rbp, 0
	subq	$32, %rsp
	.seh_stackalloc	32
	.seh_endprologue
	movq	%rcx, 16(%rbp)
	movl	$176, %r8d
	movl	$32, %edx
	movq	16(%rbp), %rcx
	call	_ZNSt8ios_base4setfESt13_Ios_FmtflagsS0_
	movq	16(%rbp), %rax
	addq	$32, %rsp
	popq	%rbp
	ret
	.seh_endproc
	.section	.text$_ZNKSt17integral_constantIbLb1EEcvbEv,"x"
	.linkonce discard
	.align 2
	.globl	_ZNKSt17integral_constantIbLb1EEcvbEv
	.def	_ZNKSt17integral_constantIbLb1EEcvbEv;	.scl	2;	.type	32;	.endef
	.seh_proc	_ZNKSt17integral_constantIbLb1EEcvbEv
_ZNKSt17integral_constantIbLb1EEcvbEv:
.LFB1350:
	pushq	%rbp
	.seh_pushreg	%rbp
	movq	%rsp, %rbp
	.seh_setframe	%rbp, 0
	.seh_endprologue
	movq	%rcx, 16(%rbp)
	movl	$1, %eax
	popq	%rbp
	ret
	.seh_endproc
.lcomm _ZStL8__ioinit,1,1
	.section	.text$_ZNSt14numeric_limitsIiE3minEv,"x"
	.linkonce discard
	.globl	_ZNSt14numeric_limitsIiE3minEv
	.def	_ZNSt14numeric_limitsIiE3minEv;	.scl	2;	.type	32;	.endef
	.seh_proc	_ZNSt14numeric_limitsIiE3minEv
_ZNSt14numeric_limitsIiE3minEv:
.LFB1748:
	pushq	%rbp
	.seh_pushreg	%rbp
	movq	%rsp, %rbp
	.seh_setframe	%rbp, 0
	.seh_endprologue
	movl	$-2147483648, %eax
	popq	%rbp
	ret
	.seh_endproc
	.section	.text$_ZNSt14numeric_limitsIiE3maxEv,"x"
	.linkonce discard
	.globl	_ZNSt14numeric_limitsIiE3maxEv
	.def	_ZNSt14numeric_limitsIiE3maxEv;	.scl	2;	.type	32;	.endef
	.seh_proc	_ZNSt14numeric_limitsIiE3maxEv
_ZNSt14numeric_limitsIiE3maxEv:
.LFB1749:
	pushq	%rbp
	.seh_pushreg	%rbp
	movq	%rsp, %rbp
	.seh_setframe	%rbp, 0
	.seh_endprologue
	movl	$2147483647, %eax
	popq	%rbp
	ret
	.seh_endproc
	.section	.text$_ZNSt14numeric_limitsIjE3minEv,"x"
	.linkonce discard
	.globl	_ZNSt14numeric_limitsIjE3minEv
	.def	_ZNSt14numeric_limitsIjE3minEv;	.scl	2;	.type	32;	.endef
	.seh_proc	_ZNSt14numeric_limitsIjE3minEv
_ZNSt14numeric_limitsIjE3minEv:
.LFB1757:
	pushq	%rbp
	.seh_pushreg	%rbp
	movq	%rsp, %rbp
	.seh_setframe	%rbp, 0
	.seh_endprologue
	movl	$0, %eax
	popq	%rbp
	ret
	.seh_endproc
	.section	.text$_ZNSt14numeric_limitsIjE3maxEv,"x"
	.linkonce discard
	.globl	_ZNSt14numeric_limitsIjE3maxEv
	.def	_ZNSt14numeric_limitsIjE3maxEv;	.scl	2;	.type	32;	.endef
	.seh_proc	_ZNSt14numeric_limitsIjE3maxEv
_ZNSt14numeric_limitsIjE3maxEv:
.LFB1758:
	pushq	%rbp
	.seh_pushreg	%rbp
	movq	%rsp, %rbp
	.seh_setframe	%rbp, 0
	.seh_endprologue
	movl	$-1, %eax
	popq	%rbp
	ret
	.seh_endproc
	.section	.text$_ZNKSt6chrono8durationIxSt5ratioILx1ELx1000000000EEE5countEv,"x"
	.linkonce discard
	.align 2
	.globl	_ZNKSt6chrono8durationIxSt5ratioILx1ELx1000000000EEE5countEv
	.def	_ZNKSt6chrono8durationIxSt5ratioILx1ELx1000000000EEE5countEv;	.scl	2;	.type	32;	.endef
	.seh_proc	_ZNKSt6chrono8durationIxSt5ratioILx1ELx1000000000EEE5countEv
_ZNKSt6chrono8durationIxSt5ratioILx1ELx1000000000EEE5countEv:
.LFB1907:
	pushq	%rbp
	.seh_pushreg	%rbp
	movq	%rsp, %rbp
	.seh_setframe	%rbp, 0
	.seh_endprologue
	movq	%rcx, 16(%rbp)
	movq	16(%rbp), %rax
	movq	(%rax), %rax
	popq	%rbp
	ret
	.seh_endproc
	.section	.text$_ZNSt6chronoltIxSt5ratioILx1ELx1000000000EExS2_EEbRKNS_8durationIT_T0_EERKNS3_IT1_T2_EE,"x"
	.linkonce discard
	.globl	_ZNSt6chronoltIxSt5ratioILx1ELx1000000000EExS2_EEbRKNS_8durationIT_T0_EERKNS3_IT1_T2_EE
	.def	_ZNSt6chronoltIxSt5ratioILx1ELx1000000000EExS2_EEbRKNS_8durationIT_T0_EERKNS3_IT1_T2_EE;	.scl	2;	.type	32;	.endef
	.seh_proc	_ZNSt6chronoltIxSt5ratioILx1ELx1000000000EExS2_EEbRKNS_8durationIT_T0_EERKNS3_IT1_T2_EE
_ZNSt6chronoltIxSt5ratioILx1ELx1000000000EExS2_EEbRKNS_8durationIT_T0_EERKNS3_IT1_T2_EE:
.LFB1906:
	pushq	%rbp
	.seh_pushreg	%rbp
	pushq	%rbx
	.seh_pushreg	%rbx
	subq	$56, %rsp
	.seh_stackalloc	56
	leaq	128(%rsp), %rbp
	.seh_setframe	%rbp, 128
	.seh_endprologue
	movq	%rcx, -48(%rbp)
	movq	%rdx, -40(%rbp)
	movq	-48(%rbp), %rax
	movq	(%rax), %rax
	movq	%rax, -96(%rbp)
	leaq	-96(%rbp), %rax
	movq	%rax, %rcx
	call	_ZNKSt6chrono8durationIxSt5ratioILx1ELx1000000000EEE5countEv
	movq	%rax, %rbx
	movq	-40(%rbp), %rax
	movq	(%rax), %rax
	movq	%rax, -88(%rbp)
	leaq	-88(%rbp), %rax
	movq	%rax, %rcx
	call	_ZNKSt6chrono8durationIxSt5ratioILx1ELx1000000000EEE5countEv
	cmpq	%rax, %rbx
	setl	%al
	addq	$56, %rsp
	popq	%rbx
	popq	%rbp
	ret
	.seh_endproc
	.section	.text$_ZNSt6chrono8durationIxSt5ratioILx1ELx1000000000EEEC1IxvEERKT_,"x"
	.linkonce discard
	.align 2
	.globl	_ZNSt6chrono8durationIxSt5ratioILx1ELx1000000000EEEC1IxvEERKT_
	.def	_ZNSt6chrono8durationIxSt5ratioILx1ELx1000000000EEEC1IxvEERKT_;	.scl	2;	.type	32;	.endef
	.seh_proc	_ZNSt6chrono8durationIxSt5ratioILx1ELx1000000000EEEC1IxvEERKT_
_ZNSt6chrono8durationIxSt5ratioILx1ELx1000000000EEEC1IxvEERKT_:
.LFB1912:
	pushq	%rbp
	.seh_pushreg	%rbp
	movq	%rsp, %rbp
	.seh_setframe	%rbp, 0
	.seh_endprologue
	movq	%rcx, 16(%rbp)
	movq	%rdx, 24(%rbp)
	movq	24(%rbp), %rax
	movq	(%rax), %rdx
	movq	16(%rbp), %rax
	movq	%rdx, (%rax)
	nop
	popq	%rbp
	ret
	.seh_endproc
	.section	.text$_ZNSt6chrono15duration_valuesIxE4zeroEv,"x"
	.linkonce discard
	.globl	_ZNSt6chrono15duration_valuesIxE4zeroEv
	.def	_ZNSt6chrono15duration_valuesIxE4zeroEv;	.scl	2;	.type	32;	.endef
	.seh_proc	_ZNSt6chrono15duration_valuesIxE4zeroEv
_ZNSt6chrono15duration_valuesIxE4zeroEv:
.LFB1914:
	pushq	%rbp
	.seh_pushreg	%rbp
	movq	%rsp, %rbp
	.seh_setframe	%rbp, 0
	.seh_endprologue
	movl	$0, %eax
	popq	%rbp
	ret
	.seh_endproc
	.section	.text$_ZNSt6chrono3_V212system_clock9to_time_tERKNS_10time_pointIS1_NS_8durationIxSt5ratioILx1ELx1000000000EEEEEE,"x"
	.linkonce discard
	.globl	_ZNSt6chrono3_V212system_clock9to_time_tERKNS_10time_pointIS1_NS_8durationIxSt5ratioILx1ELx1000000000EEEEEE
	.def	_ZNSt6chrono3_V212system_clock9to_time_tERKNS_10time_pointIS1_NS_8durationIxSt5ratioILx1ELx1000000000EEEEEE;	.scl	2;	.type	32;	.endef
	.seh_proc	_ZNSt6chrono3_V212system_clock9to_time_tERKNS_10time_pointIS1_NS_8durationIxSt5ratioILx1ELx1000000000EEEEEE
_ZNSt6chrono3_V212system_clock9to_time_tERKNS_10time_pointIS1_NS_8durationIxSt5ratioILx1ELx1000000000EEEEEE:
.LFB1915:
	pushq	%rbp
	.seh_pushreg	%rbp
	movq	%rsp, %rbp
	.seh_setframe	%rbp, 0
	subq	$48, %rsp
	.seh_stackalloc	48
	.seh_endprologue
	movq	%rcx, 16(%rbp)
	movq	16(%rbp), %rcx
	call	_ZNKSt6chrono10time_pointINS_3_V212system_clockENS_8durationIxSt5ratioILx1ELx1000000000EEEEE16time_since_epochEv
	movq	%rax, -8(%rbp)
	leaq	-8(%rbp), %rax
	movq	%rax, %rcx
	call	_ZNSt6chrono13duration_castINS_8durationIxSt5ratioILx1ELx1EEEExS2_ILx1ELx1000000000EEEENSt9enable_ifIXsrNS_13__is_durationIT_EE5valueES8_E4typeERKNS1_IT0_T1_EE
	movq	%rax, -16(%rbp)
	leaq	-16(%rbp), %rax
	movq	%rax, %rcx
	call	_ZNKSt6chrono8durationIxSt5ratioILx1ELx1EEE5countEv
	addq	$48, %rsp
	popq	%rbp
	ret
	.def	__gxx_personality_seh0;	.scl	2;	.type	32;	.endef
	.seh_handler	__gxx_personality_seh0, @unwind, @except
	.seh_handlerdata
.LLSDA1915:
	.byte	0xff
	.byte	0xff
	.byte	0x1
	.uleb128 .LLSDACSE1915-.LLSDACSB1915
.LLSDACSB1915:
.LLSDACSE1915:
	.section	.text$_ZNSt6chrono3_V212system_clock9to_time_tERKNS_10time_pointIS1_NS_8durationIxSt5ratioILx1ELx1000000000EEEEEE,"x"
	.linkonce discard
	.seh_endproc
	.section .rdata,"dr"
	.align 4
_ZN9__gnu_cxxL21__default_lock_policyE:
	.long	2
_ZStL13allocator_arg:
	.space 1
_ZStL6ignore:
	.space 1
	.section	.text$_ZNSt9exceptionC2ERKS_,"x"
	.linkonce discard
	.align 2
	.globl	_ZNSt9exceptionC2ERKS_
	.def	_ZNSt9exceptionC2ERKS_;	.scl	2;	.type	32;	.endef
	.seh_proc	_ZNSt9exceptionC2ERKS_
_ZNSt9exceptionC2ERKS_:
.LFB2420:
	pushq	%rbp
	.seh_pushreg	%rbp
	movq	%rsp, %rbp
	.seh_setframe	%rbp, 0
	.seh_endprologue
	movq	%rcx, 16(%rbp)
	movq	%rdx, 24(%rbp)
	movq	.refptr._ZTVSt9exception(%rip), %rax
	leaq	16(%rax), %rdx
	movq	16(%rbp), %rax
	movq	%rdx, (%rax)
	nop
	popq	%rbp
	ret
	.seh_endproc
	.section	.text$_ZNSt9exceptionC1ERKS_,"x"
	.linkonce discard
	.align 2
	.globl	_ZNSt9exceptionC1ERKS_
	.def	_ZNSt9exceptionC1ERKS_;	.scl	2;	.type	32;	.endef
	.seh_proc	_ZNSt9exceptionC1ERKS_
_ZNSt9exceptionC1ERKS_:
.LFB2421:
	pushq	%rbp
	.seh_pushreg	%rbp
	movq	%rsp, %rbp
	.seh_setframe	%rbp, 0
	.seh_endprologue
	movq	%rcx, 16(%rbp)
	movq	%rdx, 24(%rbp)
	movq	.refptr._ZTVSt9exception(%rip), %rax
	leaq	16(%rax), %rdx
	movq	16(%rbp), %rax
	movq	%rdx, (%rax)
	nop
	popq	%rbp
	ret
	.seh_endproc
	.globl	_ZZNSt19_Sp_make_shared_tag5_S_tiEvE5__tag
	.section	.rdata$_ZZNSt19_Sp_make_shared_tag5_S_tiEvE5__tag,"dr"
	.linkonce same_size
	.align 8
_ZZNSt19_Sp_make_shared_tag5_S_tiEvE5__tag:
	.space 16
	.section	.text$_ZNSt19_Sp_make_shared_tag5_S_tiEv,"x"
	.linkonce discard
	.globl	_ZNSt19_Sp_make_shared_tag5_S_tiEv
	.def	_ZNSt19_Sp_make_shared_tag5_S_tiEv;	.scl	2;	.type	32;	.endef
	.seh_proc	_ZNSt19_Sp_make_shared_tag5_S_tiEv
_ZNSt19_Sp_make_shared_tag5_S_tiEv:
.LFB2465:
	pushq	%rbp
	.seh_pushreg	%rbp
	movq	%rsp, %rbp
	.seh_setframe	%rbp, 0
	.seh_endprologue
	leaq	_ZZNSt19_Sp_make_shared_tag5_S_tiEvE5__tag(%rip), %rax
	popq	%rbp
	ret
	.seh_endproc
	.section	.text$_ZNSt11atomic_flagC1Eb,"x"
	.linkonce discard
	.align 2
	.globl	_ZNSt11atomic_flagC1Eb
	.def	_ZNSt11atomic_flagC1Eb;	.scl	2;	.type	32;	.endef
	.seh_proc	_ZNSt11atomic_flagC1Eb
_ZNSt11atomic_flagC1Eb:
.LFB2685:
	pushq	%rbp
	.seh_pushreg	%rbp
	movq	%rsp, %rbp
	.seh_setframe	%rbp, 0
	subq	$32, %rsp
	.seh_stackalloc	32
	.seh_endprologue
	movq	%rcx, 16(%rbp)
	movl	%edx, %eax
	movb	%al, 24(%rbp)
	movzbl	24(%rbp), %eax
	movl	%eax, %ecx
	call	_ZNSt11atomic_flag7_S_initEb
	movq	16(%rbp), %rdx
	movb	%al, (%rdx)
	nop
	addq	$32, %rsp
	popq	%rbp
	ret
	.seh_endproc
	.section	.text$_ZNSt11atomic_flag7_S_initEb,"x"
	.linkonce discard
	.globl	_ZNSt11atomic_flag7_S_initEb
	.def	_ZNSt11atomic_flag7_S_initEb;	.scl	2;	.type	32;	.endef
	.seh_proc	_ZNSt11atomic_flag7_S_initEb
_ZNSt11atomic_flag7_S_initEb:
.LFB2690:
	pushq	%rbp
	.seh_pushreg	%rbp
	movq	%rsp, %rbp
	.seh_setframe	%rbp, 0
	.seh_endprologue
	movl	%ecx, %eax
	movb	%al, 16(%rbp)
	cmpb	$0, 16(%rbp)
	je	.L85
	movl	$1, %eax
	jmp	.L86
.L85:
	movl	$0, %eax
.L86:
	testl	%eax, %eax
	setne	%al
	popq	%rbp
	ret
	.seh_endproc
	.section	.text$_ZNSt6thread2idC1Ev,"x"
	.linkonce discard
	.align 2
	.globl	_ZNSt6thread2idC1Ev
	.def	_ZNSt6thread2idC1Ev;	.scl	2;	.type	32;	.endef
	.seh_proc	_ZNSt6thread2idC1Ev
_ZNSt6thread2idC1Ev:
.LFB2823:
	pushq	%rbp
	.seh_pushreg	%rbp
	movq	%rsp, %rbp
	.seh_setframe	%rbp, 0
	.seh_endprologue
	movq	%rcx, 16(%rbp)
	movq	16(%rbp), %rax
	movq	$0, (%rax)
	nop
	popq	%rbp
	ret
	.seh_endproc
	.section	.text$_ZNSt6threadD1Ev,"x"
	.linkonce discard
	.align 2
	.globl	_ZNSt6threadD1Ev
	.def	_ZNSt6threadD1Ev;	.scl	2;	.type	32;	.endef
	.seh_proc	_ZNSt6threadD1Ev
_ZNSt6threadD1Ev:
.LFB2830:
	pushq	%rbp
	.seh_pushreg	%rbp
	movq	%rsp, %rbp
	.seh_setframe	%rbp, 0
	subq	$32, %rsp
	.seh_stackalloc	32
	.seh_endprologue
	movq	%rcx, 16(%rbp)
	movq	16(%rbp), %rcx
	call	_ZNKSt6thread8joinableEv
	testb	%al, %al
	je	.L91
	call	_ZSt9terminatev
.L91:
	nop
	addq	$32, %rsp
	popq	%rbp
	ret
	.seh_endproc
	.section	.text$_ZNKSt6thread8joinableEv,"x"
	.linkonce discard
	.align 2
	.globl	_ZNKSt6thread8joinableEv
	.def	_ZNKSt6thread8joinableEv;	.scl	2;	.type	32;	.endef
	.seh_proc	_ZNKSt6thread8joinableEv
_ZNKSt6thread8joinableEv:
.LFB2837:
	pushq	%rbp
	.seh_pushreg	%rbp
	movq	%rsp, %rbp
	.seh_setframe	%rbp, 0
	subq	$48, %rsp
	.seh_stackalloc	48
	.seh_endprologue
	movq	%rcx, 16(%rbp)
	leaq	-8(%rbp), %rax
	movq	%rax, %rcx
	call	_ZNSt6thread2idC1Ev
	movq	-8(%rbp), %rax
	movq	16(%rbp), %rcx
	movq	%rax, %rdx
	movq	(%rcx), %rcx
	call	_ZSteqNSt6thread2idES0_
	xorl	$1, %eax
	addq	$48, %rsp
	popq	%rbp
	ret
	.seh_endproc
	.section	.text$_ZSteqNSt6thread2idES0_,"x"
	.linkonce discard
	.globl	_ZSteqNSt6thread2idES0_
	.def	_ZSteqNSt6thread2idES0_;	.scl	2;	.type	32;	.endef
	.seh_proc	_ZSteqNSt6thread2idES0_
_ZSteqNSt6thread2idES0_:
.LFB2857:
	pushq	%rbp
	.seh_pushreg	%rbp
	movq	%rsp, %rbp
	.seh_setframe	%rbp, 0
	.seh_endprologue
	movq	%rcx, 16(%rbp)
	movq	%rdx, 24(%rbp)
	movq	16(%rbp), %rdx
	movq	24(%rbp), %rax
	cmpq	%rax, %rdx
	sete	%al
	popq	%rbp
	ret
	.seh_endproc
	.section	.text$_ZNSt12__mutex_baseC2Ev,"x"
	.linkonce discard
	.align 2
	.globl	_ZNSt12__mutex_baseC2Ev
	.def	_ZNSt12__mutex_baseC2Ev;	.scl	2;	.type	32;	.endef
	.seh_proc	_ZNSt12__mutex_baseC2Ev
_ZNSt12__mutex_baseC2Ev:
.LFB3002:
	pushq	%rbp
	.seh_pushreg	%rbp
	movq	%rsp, %rbp
	.seh_setframe	%rbp, 0
	subq	$32, %rsp
	.seh_stackalloc	32
	.seh_endprologue
	movq	%rcx, 16(%rbp)
	movq	16(%rbp), %rax
	movq	%rax, %rcx
	call	_ZL29__gthread_mutex_init_functionPx
	nop
	addq	$32, %rsp
	popq	%rbp
	ret
	.seh_handler	__gxx_personality_seh0, @unwind, @except
	.seh_handlerdata
.LLSDA3002:
	.byte	0xff
	.byte	0xff
	.byte	0x1
	.uleb128 .LLSDACSE3002-.LLSDACSB3002
.LLSDACSB3002:
.LLSDACSE3002:
	.section	.text$_ZNSt12__mutex_baseC2Ev,"x"
	.linkonce discard
	.seh_endproc
	.section	.text$_ZNSt12__mutex_baseD2Ev,"x"
	.linkonce discard
	.align 2
	.globl	_ZNSt12__mutex_baseD2Ev
	.def	_ZNSt12__mutex_baseD2Ev;	.scl	2;	.type	32;	.endef
	.seh_proc	_ZNSt12__mutex_baseD2Ev
_ZNSt12__mutex_baseD2Ev:
.LFB3005:
	pushq	%rbp
	.seh_pushreg	%rbp
	movq	%rsp, %rbp
	.seh_setframe	%rbp, 0
	subq	$32, %rsp
	.seh_stackalloc	32
	.seh_endprologue
	movq	%rcx, 16(%rbp)
	movq	16(%rbp), %rax
	movq	%rax, %rcx
	call	_ZL23__gthread_mutex_destroyPx
	nop
	addq	$32, %rsp
	popq	%rbp
	ret
	.seh_handler	__gxx_personality_seh0, @unwind, @except
	.seh_handlerdata
.LLSDA3005:
	.byte	0xff
	.byte	0xff
	.byte	0x1
	.uleb128 .LLSDACSE3005-.LLSDACSB3005
.LLSDACSB3005:
.LLSDACSE3005:
	.section	.text$_ZNSt12__mutex_baseD2Ev,"x"
	.linkonce discard
	.seh_endproc
	.section	.text$_ZNSt5mutex4lockEv,"x"
	.linkonce discard
	.align 2
	.globl	_ZNSt5mutex4lockEv
	.def	_ZNSt5mutex4lockEv;	.scl	2;	.type	32;	.endef
	.seh_proc	_ZNSt5mutex4lockEv
_ZNSt5mutex4lockEv:
.LFB3007:
	pushq	%rbp
	.seh_pushreg	%rbp
	movq	%rsp, %rbp
	.seh_setframe	%rbp, 0
	subq	$48, %rsp
	.seh_stackalloc	48
	.seh_endprologue
	movq	%rcx, 16(%rbp)
	movq	16(%rbp), %rax
	movq	%rax, %rcx
	call	_ZL20__gthread_mutex_lockPx
	movl	%eax, -4(%rbp)
	cmpl	$0, -4(%rbp)
	je	.L100
	movl	-4(%rbp), %eax
	movl	%eax, %ecx
	call	_ZSt20__throw_system_errori
.L100:
	nop
	addq	$48, %rsp
	popq	%rbp
	ret
	.seh_endproc
	.section	.text$_ZNSt5mutex6unlockEv,"x"
	.linkonce discard
	.align 2
	.globl	_ZNSt5mutex6unlockEv
	.def	_ZNSt5mutex6unlockEv;	.scl	2;	.type	32;	.endef
	.seh_proc	_ZNSt5mutex6unlockEv
_ZNSt5mutex6unlockEv:
.LFB3009:
	pushq	%rbp
	.seh_pushreg	%rbp
	movq	%rsp, %rbp
	.seh_setframe	%rbp, 0
	subq	$32, %rsp
	.seh_stackalloc	32
	.seh_endprologue
	movq	%rcx, 16(%rbp)
	movq	16(%rbp), %rax
	movq	%rax, %rcx
	call	_ZL22__gthread_mutex_unlockPx
	nop
	addq	$32, %rsp
	popq	%rbp
	ret
	.seh_endproc
	.section	.text$_ZNSt5mutex13native_handleEv,"x"
	.linkonce discard
	.align 2
	.globl	_ZNSt5mutex13native_handleEv
	.def	_ZNSt5mutex13native_handleEv;	.scl	2;	.type	32;	.endef
	.seh_proc	_ZNSt5mutex13native_handleEv
_ZNSt5mutex13native_handleEv:
.LFB3010:
	pushq	%rbp
	.seh_pushreg	%rbp
	movq	%rsp, %rbp
	.seh_setframe	%rbp, 0
	.seh_endprologue
	movq	%rcx, 16(%rbp)
	movq	16(%rbp), %rax
	popq	%rbp
	ret
	.seh_endproc
	.section .rdata,"dr"
_ZStL10defer_lock:
	.space 1
_ZStL11try_to_lock:
	.space 1
_ZStL10adopt_lock:
	.space 1
	.section	.text$_ZNSt9_Any_data9_M_accessEv,"x"
	.linkonce discard
	.align 2
	.globl	_ZNSt9_Any_data9_M_accessEv
	.def	_ZNSt9_Any_data9_M_accessEv;	.scl	2;	.type	32;	.endef
	.seh_proc	_ZNSt9_Any_data9_M_accessEv
_ZNSt9_Any_data9_M_accessEv:
.LFB3279:
	pushq	%rbp
	.seh_pushreg	%rbp
	movq	%rsp, %rbp
	.seh_setframe	%rbp, 0
	.seh_endprologue
	movq	%rcx, 16(%rbp)
	movq	16(%rbp), %rax
	popq	%rbp
	ret
	.seh_endproc
	.section	.text$_ZNKSt9_Any_data9_M_accessEv,"x"
	.linkonce discard
	.align 2
	.globl	_ZNKSt9_Any_data9_M_accessEv
	.def	_ZNKSt9_Any_data9_M_accessEv;	.scl	2;	.type	32;	.endef
	.seh_proc	_ZNKSt9_Any_data9_M_accessEv
_ZNKSt9_Any_data9_M_accessEv:
.LFB3280:
	pushq	%rbp
	.seh_pushreg	%rbp
	movq	%rsp, %rbp
	.seh_setframe	%rbp, 0
	.seh_endprologue
	movq	%rcx, 16(%rbp)
	movq	16(%rbp), %rax
	popq	%rbp
	ret
	.seh_endproc
	.section	.text$_ZNSt14_Function_baseC2Ev,"x"
	.linkonce discard
	.align 2
	.globl	_ZNSt14_Function_baseC2Ev
	.def	_ZNSt14_Function_baseC2Ev;	.scl	2;	.type	32;	.endef
	.seh_proc	_ZNSt14_Function_baseC2Ev
_ZNSt14_Function_baseC2Ev:
.LFB3297:
	pushq	%rbp
	.seh_pushreg	%rbp
	movq	%rsp, %rbp
	.seh_setframe	%rbp, 0
	.seh_endprologue
	movq	%rcx, 16(%rbp)
	movq	16(%rbp), %rax
	movq	$0, 16(%rax)
	nop
	popq	%rbp
	ret
	.seh_endproc
	.section	.text$_ZNSt14_Function_baseD2Ev,"x"
	.linkonce discard
	.align 2
	.globl	_ZNSt14_Function_baseD2Ev
	.def	_ZNSt14_Function_baseD2Ev;	.scl	2;	.type	32;	.endef
	.seh_proc	_ZNSt14_Function_baseD2Ev
_ZNSt14_Function_baseD2Ev:
.LFB3300:
	pushq	%rbp
	.seh_pushreg	%rbp
	movq	%rsp, %rbp
	.seh_setframe	%rbp, 0
	subq	$32, %rsp
	.seh_stackalloc	32
	.seh_endprologue
	movq	%rcx, 16(%rbp)
	movq	16(%rbp), %rax
	movq	16(%rax), %rax
	testq	%rax, %rax
	je	.L111
	movq	16(%rbp), %rax
	movq	16(%rax), %r9
	movq	16(%rbp), %rdx
	movq	16(%rbp), %rax
	movl	$3, %r8d
	movq	%rax, %rcx
	call	*%r9
.L111:
	nop
	addq	$32, %rsp
	popq	%rbp
	ret
	.seh_handler	__gxx_personality_seh0, @unwind, @except
	.seh_handlerdata
.LLSDA3300:
	.byte	0xff
	.byte	0xff
	.byte	0x1
	.uleb128 .LLSDACSE3300-.LLSDACSB3300
.LLSDACSB3300:
.LLSDACSE3300:
	.section	.text$_ZNSt14_Function_baseD2Ev,"x"
	.linkonce discard
	.seh_endproc
	.section	.text$_ZNKSt14_Function_base8_M_emptyEv,"x"
	.linkonce discard
	.align 2
	.globl	_ZNKSt14_Function_base8_M_emptyEv
	.def	_ZNKSt14_Function_base8_M_emptyEv;	.scl	2;	.type	32;	.endef
	.seh_proc	_ZNKSt14_Function_base8_M_emptyEv
_ZNKSt14_Function_base8_M_emptyEv:
.LFB3302:
	pushq	%rbp
	.seh_pushreg	%rbp
	movq	%rsp, %rbp
	.seh_setframe	%rbp, 0
	.seh_endprologue
	movq	%rcx, 16(%rbp)
	movq	16(%rbp), %rax
	movq	16(%rax), %rax
	testq	%rax, %rax
	sete	%al
	popq	%rbp
	ret
	.seh_endproc
	.section	.text$_ZSt15make_error_codeSt11future_errc,"x"
	.linkonce discard
	.globl	_ZSt15make_error_codeSt11future_errc
	.def	_ZSt15make_error_codeSt11future_errc;	.scl	2;	.type	32;	.endef
	.seh_proc	_ZSt15make_error_codeSt11future_errc
_ZSt15make_error_codeSt11future_errc:
.LFB3328:
	pushq	%rbp
	.seh_pushreg	%rbp
	movq	%rsp, %rbp
	.seh_setframe	%rbp, 0
	subq	$32, %rsp
	.seh_stackalloc	32
	.seh_endprologue
	movq	%rcx, 16(%rbp)
	movl	%edx, 24(%rbp)
	call	_ZSt15future_categoryv
	movq	%rax, %rdx
	movl	24(%rbp), %eax
	movq	%rdx, %r8
	movl	%eax, %edx
	movq	16(%rbp), %rcx
	call	_ZNSt10error_codeC1EiRKNSt3_V214error_categoryE
	movq	16(%rbp), %rax
	addq	$32, %rsp
	popq	%rbp
	ret
	.seh_endproc
	.section	.text$_ZNSt12future_errorC1ESt11future_errc,"x"
	.linkonce discard
	.align 2
	.globl	_ZNSt12future_errorC1ESt11future_errc
	.def	_ZNSt12future_errorC1ESt11future_errc;	.scl	2;	.type	32;	.endef
	.seh_proc	_ZNSt12future_errorC1ESt11future_errc
_ZNSt12future_errorC1ESt11future_errc:
.LFB3332:
	pushq	%rbp
	.seh_pushreg	%rbp
	movq	%rsp, %rbp
	.seh_setframe	%rbp, 0
	subq	$64, %rsp
	.seh_stackalloc	64
	.seh_endprologue
	movq	%rcx, 16(%rbp)
	movl	%edx, 24(%rbp)
	leaq	-16(%rbp), %rax
	movl	24(%rbp), %edx
	movq	%rax, %rcx
	call	_ZSt15make_error_codeSt11future_errc
	movq	-16(%rbp), %rax
	movq	-8(%rbp), %rdx
	movq	%rax, -32(%rbp)
	movq	%rdx, -24(%rbp)
	leaq	-32(%rbp), %rax
	movq	%rax, %rdx
	movq	16(%rbp), %rcx
	call	_ZNSt12future_errorC1ESt10error_code
	nop
	addq	$64, %rsp
	popq	%rbp
	ret
	.seh_endproc
	.section .rdata,"dr"
.LC1:
	.ascii "std::future_error: \0"
	.section	.text$_ZNSt12future_errorC1ESt10error_code,"x"
	.linkonce discard
	.align 2
	.globl	_ZNSt12future_errorC1ESt10error_code
	.def	_ZNSt12future_errorC1ESt10error_code;	.scl	2;	.type	32;	.endef
	.seh_proc	_ZNSt12future_errorC1ESt10error_code
_ZNSt12future_errorC1ESt10error_code:
.LFB3336:
	pushq	%rbp
	.seh_pushreg	%rbp
	pushq	%rbx
	.seh_pushreg	%rbx
	subq	$120, %rsp
	.seh_stackalloc	120
	leaq	128(%rsp), %rbp
	.seh_setframe	%rbp, 128
	.seh_endprologue
	movq	%rcx, 16(%rbp)
	movq	%rdx, %rbx
	movq	(%rbx), %rax
	movq	8(%rbx), %rdx
	movq	%rax, -96(%rbp)
	movq	%rdx, -88(%rbp)
	movq	16(%rbp), %rbx
	leaq	-48(%rbp), %rax
	leaq	-96(%rbp), %rdx
	movq	%rax, %rcx
.LEHB0:
	call	_ZNKSt10error_code7messageB5cxx11Ev
.LEHE0:
	leaq	-80(%rbp), %rax
	leaq	-48(%rbp), %rdx
	movq	%rdx, %r8
	leaq	.LC1(%rip), %rdx
	movq	%rax, %rcx
.LEHB1:
	call	_ZStplIcSt11char_traitsIcESaIcEENSt7__cxx1112basic_stringIT_T0_T1_EEPKS5_OS8_
.LEHE1:
	leaq	-80(%rbp), %rax
	movq	%rax, %rdx
	movq	%rbx, %rcx
.LEHB2:
	call	_ZNSt11logic_errorC2ERKNSt7__cxx1112basic_stringIcSt11char_traitsIcESaIcEEE
.LEHE2:
	leaq	-80(%rbp), %rax
	movq	%rax, %rcx
	call	_ZNSt7__cxx1112basic_stringIcSt11char_traitsIcESaIcEED1Ev
	leaq	-48(%rbp), %rax
	movq	%rax, %rcx
	call	_ZNSt7__cxx1112basic_stringIcSt11char_traitsIcESaIcEED1Ev
	movq	.refptr._ZTVSt12future_error(%rip), %rax
	leaq	16(%rax), %rdx
	movq	16(%rbp), %rax
	movq	%rdx, (%rax)
	movq	16(%rbp), %rcx
	movq	-96(%rbp), %rax
	movq	-88(%rbp), %rdx
	movq	%rax, 16(%rcx)
	movq	%rdx, 24(%rcx)
	jmp	.L122
.L121:
	movq	%rax, %rbx
	leaq	-80(%rbp), %rax
	movq	%rax, %rcx
	call	_ZNSt7__cxx1112basic_stringIcSt11char_traitsIcESaIcEED1Ev
	jmp	.L119
.L120:
	movq	%rax, %rbx
.L119:
	leaq	-48(%rbp), %rax
	movq	%rax, %rcx
	call	_ZNSt7__cxx1112basic_stringIcSt11char_traitsIcESaIcEED1Ev
	movq	%rbx, %rax
	movq	%rax, %rcx
.LEHB3:
	call	_Unwind_Resume
	nop
.LEHE3:
.L122:
	addq	$120, %rsp
	popq	%rbx
	popq	%rbp
	ret
	.seh_handler	__gxx_personality_seh0, @unwind, @except
	.seh_handlerdata
.LLSDA3336:
	.byte	0xff
	.byte	0xff
	.byte	0x1
	.uleb128 .LLSDACSE3336-.LLSDACSB3336
.LLSDACSB3336:
	.uleb128 .LEHB0-.LFB3336
	.uleb128 .LEHE0-.LEHB0
	.uleb128 0
	.uleb128 0
	.uleb128 .LEHB1-.LFB3336
	.uleb128 .LEHE1-.LEHB1
	.uleb128 .L120-.LFB3336
	.uleb128 0
	.uleb128 .LEHB2-.LFB3336
	.uleb128 .LEHE2-.LEHB2
	.uleb128 .L121-.LFB3336
	.uleb128 0
	.uleb128 .LEHB3-.LFB3336
	.uleb128 .LEHE3-.LEHB3
	.uleb128 0
	.uleb128 0
.LLSDACSE3336:
	.section	.text$_ZNSt12future_errorC1ESt10error_code,"x"
	.linkonce discard
	.seh_endproc
	.section	.text$_ZNKSt13__future_base12_Result_base8_DeleterclEPS0_,"x"
	.linkonce discard
	.align 2
	.globl	_ZNKSt13__future_base12_Result_base8_DeleterclEPS0_
	.def	_ZNKSt13__future_base12_Result_base8_DeleterclEPS0_;	.scl	2;	.type	32;	.endef
	.seh_proc	_ZNKSt13__future_base12_Result_base8_DeleterclEPS0_
_ZNKSt13__future_base12_Result_base8_DeleterclEPS0_:
.LFB3354:
	pushq	%rbp
	.seh_pushreg	%rbp
	movq	%rsp, %rbp
	.seh_setframe	%rbp, 0
	subq	$32, %rsp
	.seh_stackalloc	32
	.seh_endprologue
	movq	%rcx, 16(%rbp)
	movq	%rdx, 24(%rbp)
	movq	24(%rbp), %rax
	movq	(%rax), %rax
	movq	(%rax), %rdx
	movq	24(%rbp), %rax
	movq	%rax, %rcx
	call	*%rdx
	nop
	addq	$32, %rsp
	popq	%rbp
	ret
	.seh_endproc
	.section	.text$_ZNSt5mutexD1Ev,"x"
	.linkonce discard
	.align 2
	.globl	_ZNSt5mutexD1Ev
	.def	_ZNSt5mutexD1Ev;	.scl	2;	.type	32;	.endef
	.seh_proc	_ZNSt5mutexD1Ev
_ZNSt5mutexD1Ev:
.LFB3369:
	pushq	%rbp
	.seh_pushreg	%rbp
	movq	%rsp, %rbp
	.seh_setframe	%rbp, 0
	subq	$32, %rsp
	.seh_stackalloc	32
	.seh_endprologue
	movq	%rcx, 16(%rbp)
	movq	16(%rbp), %rax
	movq	%rax, %rcx
	call	_ZNSt12__mutex_baseD2Ev
	nop
	addq	$32, %rsp
	popq	%rbp
	ret
	.seh_endproc
	.section	.text$_ZNSt23__atomic_futex_unsignedILj2147483648EED1Ev,"x"
	.linkonce discard
	.align 2
	.globl	_ZNSt23__atomic_futex_unsignedILj2147483648EED1Ev
	.def	_ZNSt23__atomic_futex_unsignedILj2147483648EED1Ev;	.scl	2;	.type	32;	.endef
	.seh_proc	_ZNSt23__atomic_futex_unsignedILj2147483648EED1Ev
_ZNSt23__atomic_futex_unsignedILj2147483648EED1Ev:
.LFB3371:
	pushq	%rbp
	.seh_pushreg	%rbp
	movq	%rsp, %rbp
	.seh_setframe	%rbp, 0
	subq	$32, %rsp
	.seh_stackalloc	32
	.seh_endprologue
	movq	%rcx, 16(%rbp)
	movq	16(%rbp), %rax
	addq	$16, %rax
	movq	%rax, %rcx
	call	_ZNSt18condition_variableD1Ev
	movq	16(%rbp), %rax
	addq	$8, %rax
	movq	%rax, %rcx
	call	_ZNSt5mutexD1Ev
	nop
	addq	$32, %rsp
	popq	%rbp
	ret
	.seh_endproc
	.section	.text$_ZNSt9once_flagC1Ev,"x"
	.linkonce discard
	.align 2
	.globl	_ZNSt9once_flagC1Ev
	.def	_ZNSt9once_flagC1Ev;	.scl	2;	.type	32;	.endef
	.seh_proc	_ZNSt9once_flagC1Ev
_ZNSt9once_flagC1Ev:
.LFB3374:
	pushq	%rbp
	.seh_pushreg	%rbp
	movq	%rsp, %rbp
	.seh_setframe	%rbp, 0
	.seh_endprologue
	movq	%rcx, 16(%rbp)
	movq	16(%rbp), %rax
	movl	$0, (%rax)
	nop
	popq	%rbp
	ret
	.seh_endproc
	.section	.text$_ZNSt13__future_base13_State_baseV2C1Ev,"x"
	.linkonce discard
	.align 2
	.globl	_ZNSt13__future_base13_State_baseV2C1Ev
	.def	_ZNSt13__future_base13_State_baseV2C1Ev;	.scl	2;	.type	32;	.endef
	.seh_proc	_ZNSt13__future_base13_State_baseV2C1Ev
_ZNSt13__future_base13_State_baseV2C1Ev:
.LFB3376:
	pushq	%rbp
	.seh_pushreg	%rbp
	movq	%rsp, %rbp
	.seh_setframe	%rbp, 0
	subq	$32, %rsp
	.seh_stackalloc	32
	.seh_endprologue
	movq	%rcx, 16(%rbp)
	leaq	16+_ZTVNSt13__future_base13_State_baseV2E(%rip), %rdx
	movq	16(%rbp), %rax
	movq	%rdx, (%rax)
	movq	16(%rbp), %rax
	addq	$8, %rax
	movq	%rax, %rcx
	call	_ZNSt10unique_ptrINSt13__future_base12_Result_baseENS1_8_DeleterEEC1IS2_vEEv
	movq	16(%rbp), %rax
	addq	$16, %rax
	movl	$0, %edx
	movq	%rax, %rcx
	call	_ZNSt23__atomic_futex_unsignedILj2147483648EEC1Ej
	movq	16(%rbp), %rax
	addq	$40, %rax
	movl	$0, %edx
	movq	%rax, %rcx
	call	_ZNSt11atomic_flagC1Eb
	movq	16(%rbp), %rax
	addq	$44, %rax
	movq	%rax, %rcx
	call	_ZNSt9once_flagC1Ev
	nop
	addq	$32, %rsp
	popq	%rbp
	ret
	.seh_endproc
	.section	.text$_ZNSt13__future_base13_State_baseV213_M_set_resultESt8functionIFSt10unique_ptrINS_12_Result_baseENS3_8_DeleterEEvEEb,"x"
	.linkonce discard
	.align 2
	.globl	_ZNSt13__future_base13_State_baseV213_M_set_resultESt8functionIFSt10unique_ptrINS_12_Result_baseENS3_8_DeleterEEvEEb
	.def	_ZNSt13__future_base13_State_baseV213_M_set_resultESt8functionIFSt10unique_ptrINS_12_Result_baseENS3_8_DeleterEEvEEb;	.scl	2;	.type	32;	.endef
	.seh_proc	_ZNSt13__future_base13_State_baseV213_M_set_resultESt8functionIFSt10unique_ptrINS_12_Result_baseENS3_8_DeleterEEvEEb
_ZNSt13__future_base13_State_baseV213_M_set_resultESt8functionIFSt10unique_ptrINS_12_Result_baseENS3_8_DeleterEEvEEb:
.LFB3380:
	pushq	%rbp
	.seh_pushreg	%rbp
	pushq	%rdi
	.seh_pushreg	%rdi
	pushq	%rsi
	.seh_pushreg	%rsi
	movq	%rsp, %rbp
	.seh_setframe	%rbp, 0
	addq	$-128, %rsp
	.seh_stackalloc	128
	.seh_endprologue
	movq	%rcx, 32(%rbp)
	movq	%rdx, 40(%rbp)
	movl	%r8d, %eax
	movb	%al, 48(%rbp)
	movb	$0, -57(%rbp)
	leaq	-57(%rbp), %rax
	movq	%rax, %rcx
	call	_ZSt11__addressofIbEPT_RS0_
	movq	%rax, -56(%rbp)
	movq	40(%rbp), %rax
	movq	%rax, %rcx
	call	_ZSt11__addressofISt8functionIFSt10unique_ptrINSt13__future_base12_Result_baseENS3_8_DeleterEEvEEEPT_RS8_
	movq	%rax, -48(%rbp)
	movq	32(%rbp), %rax
	movq	%rax, -40(%rbp)
	leaq	_ZNSt13__future_base13_State_baseV29_M_do_setEPSt8functionIFSt10unique_ptrINS_12_Result_baseENS3_8_DeleterEEvEEPb(%rip), %rax
	movq	%rax, %rsi
	movl	$0, %edi
	movq	%rsi, -32(%rbp)
	movq	%rdi, -24(%rbp)
	movq	32(%rbp), %rax
	leaq	44(%rax), %rcx
	leaq	-48(%rbp), %r9
	leaq	-40(%rbp), %r8
	leaq	-32(%rbp), %rax
	leaq	-56(%rbp), %rdx
	movq	%rdx, 32(%rsp)
	movq	%rax, %rdx
	call	_ZSt9call_onceIMNSt13__future_base13_State_baseV2EFvPSt8functionIFSt10unique_ptrINS0_12_Result_baseENS4_8_DeleterEEvEEPbEJPS1_S9_SA_EEvRSt9once_flagOT_DpOT0_
	movzbl	-57(%rbp), %eax
	testb	%al, %al
	je	.L129
	movq	32(%rbp), %rax
	addq	$16, %rax
	movq	%rax, -8(%rbp)
	movl	$1, -12(%rbp)
	movl	$3, -16(%rbp)
	movq	-8(%rbp), %rax
	leaq	8(%rax), %rdx
	leaq	-80(%rbp), %rax
	movq	%rax, %rcx
	call	_ZNSt11unique_lockISt5mutexEC1ERS0_
	movq	-8(%rbp), %rax
	movl	-12(%rbp), %edx
	movl	%edx, (%rax)
	movq	-8(%rbp), %rax
	addq	$16, %rax
	movq	%rax, %rcx
	call	_ZNSt18condition_variable10notify_allEv
	leaq	-80(%rbp), %rax
	movq	%rax, %rcx
	call	_ZNSt11unique_lockISt5mutexED1Ev
	nop
	jmp	.L131
.L129:
	movzbl	48(%rbp), %eax
	xorl	$1, %eax
	testb	%al, %al
	je	.L131
	movl	$2, %ecx
	call	_ZSt20__throw_future_errori
.L131:
	nop
	subq	$-128, %rsp
	popq	%rsi
	popq	%rdi
	popq	%rbp
	ret
	.seh_endproc
	.section	.text$_ZNSt12future_errorC1ERKS_,"x"
	.linkonce discard
	.align 2
	.globl	_ZNSt12future_errorC1ERKS_
	.def	_ZNSt12future_errorC1ERKS_;	.scl	2;	.type	32;	.endef
	.seh_proc	_ZNSt12future_errorC1ERKS_
_ZNSt12future_errorC1ERKS_:
.LFB3409:
	pushq	%rbp
	.seh_pushreg	%rbp
	movq	%rsp, %rbp
	.seh_setframe	%rbp, 0
	subq	$32, %rsp
	.seh_stackalloc	32
	.seh_endprologue
	movq	%rcx, 16(%rbp)
	movq	%rdx, 24(%rbp)
	movq	16(%rbp), %rax
	movq	24(%rbp), %rdx
	movq	%rax, %rcx
	call	_ZNSt11logic_errorC2ERKS_
	movq	.refptr._ZTVSt12future_error(%rip), %rax
	leaq	16(%rax), %rdx
	movq	16(%rbp), %rax
	movq	%rdx, (%rax)
	movq	16(%rbp), %rcx
	movq	24(%rbp), %rax
	movq	24(%rax), %rdx
	movq	16(%rax), %rax
	movq	%rax, 16(%rcx)
	movq	%rdx, 24(%rcx)
	nop
	addq	$32, %rsp
	popq	%rbp
	ret
	.seh_endproc
	.section	.text$_ZNSt13__future_base13_State_baseV216_M_break_promiseESt10unique_ptrINS_12_Result_baseENS2_8_DeleterEE,"x"
	.linkonce discard
	.align 2
	.globl	_ZNSt13__future_base13_State_baseV216_M_break_promiseESt10unique_ptrINS_12_Result_baseENS2_8_DeleterEE
	.def	_ZNSt13__future_base13_State_baseV216_M_break_promiseESt10unique_ptrINS_12_Result_baseENS2_8_DeleterEE;	.scl	2;	.type	32;	.endef
	.seh_proc	_ZNSt13__future_base13_State_baseV216_M_break_promiseESt10unique_ptrINS_12_Result_baseENS2_8_DeleterEE
_ZNSt13__future_base13_State_baseV216_M_break_promiseESt10unique_ptrINS_12_Result_baseENS2_8_DeleterEE:
.LFB3406:
	pushq	%rbp
	.seh_pushreg	%rbp
	movq	%rsp, %rbp
	.seh_setframe	%rbp, 0
	subq	$112, %rsp
	.seh_stackalloc	112
	.seh_endprologue
	movq	%rcx, 16(%rbp)
	movq	%rdx, 24(%rbp)
	movq	24(%rbp), %rax
	movq	%rax, %rcx
	call	_ZNKSt10unique_ptrINSt13__future_base12_Result_baseENS1_8_DeleterEEcvbEv
	testb	%al, %al
	je	.L135
	leaq	-48(%rbp), %rax
	movl	$4, %edx
	movq	%rax, %rcx
	call	_ZNSt12future_errorC1ESt11future_errc
	leaq	-56(%rbp), %rax
	leaq	-48(%rbp), %rdx
	movq	%rax, %rcx
	call	_ZSt18make_exception_ptrISt12future_errorENSt15__exception_ptr13exception_ptrET_
	movq	24(%rbp), %rax
	movq	%rax, %rcx
	call	_ZNKSt10unique_ptrINSt13__future_base12_Result_baseENS1_8_DeleterEEptEv
	leaq	8(%rax), %rcx
	leaq	-56(%rbp), %rax
	movq	%rax, %rdx
	call	_ZNSt15__exception_ptr13exception_ptraSEOS0_
	leaq	-56(%rbp), %rax
	movq	%rax, %rcx
	call	_ZNSt15__exception_ptr13exception_ptrD1Ev
	leaq	-48(%rbp), %rax
	movq	%rax, %rcx
	call	_ZNSt12future_errorD1Ev
	movq	16(%rbp), %rax
	leaq	8(%rax), %rcx
	movq	24(%rbp), %rax
	movq	%rax, %rdx
	call	_ZNSt10unique_ptrINSt13__future_base12_Result_baseENS1_8_DeleterEE4swapERS3_
	movq	16(%rbp), %rax
	addq	$16, %rax
	movq	%rax, -8(%rbp)
	movl	$1, -12(%rbp)
	movl	$3, -16(%rbp)
	movq	-8(%rbp), %rax
	leaq	8(%rax), %rdx
	leaq	-80(%rbp), %rax
	movq	%rax, %rcx
	call	_ZNSt11unique_lockISt5mutexEC1ERS0_
	movq	-8(%rbp), %rax
	movl	-12(%rbp), %edx
	movl	%edx, (%rax)
	movq	-8(%rbp), %rax
	addq	$16, %rax
	movq	%rax, %rcx
	call	_ZNSt18condition_variable10notify_allEv
	leaq	-80(%rbp), %rax
	movq	%rax, %rcx
	call	_ZNSt11unique_lockISt5mutexED1Ev
	nop
.L135:
	nop
	addq	$112, %rsp
	popq	%rbp
	ret
	.seh_endproc
	.section	.text$_ZNSt13__future_base13_State_baseV221_M_set_retrieved_flagEv,"x"
	.linkonce discard
	.align 2
	.globl	_ZNSt13__future_base13_State_baseV221_M_set_retrieved_flagEv
	.def	_ZNSt13__future_base13_State_baseV221_M_set_retrieved_flagEv;	.scl	2;	.type	32;	.endef
	.seh_proc	_ZNSt13__future_base13_State_baseV221_M_set_retrieved_flagEv
_ZNSt13__future_base13_State_baseV221_M_set_retrieved_flagEv:
.LFB3410:
	pushq	%rbp
	.seh_pushreg	%rbp
	movq	%rsp, %rbp
	.seh_setframe	%rbp, 0
	subq	$48, %rsp
	.seh_stackalloc	48
	.seh_endprologue
	movq	%rcx, 16(%rbp)
	movq	16(%rbp), %rax
	addq	$40, %rax
	movq	%rax, -8(%rbp)
	movl	$5, -12(%rbp)
	movq	-8(%rbp), %rdx
	movl	$1, %eax
	xchgb	(%rdx), %al
	nop
	testb	%al, %al
	je	.L139
	movl	$1, %ecx
	call	_ZSt20__throw_future_errori
.L139:
	nop
	addq	$48, %rsp
	popq	%rbp
	ret
	.seh_endproc
	.section	.text$_ZNSt13__future_base13_State_baseV29_M_do_setEPSt8functionIFSt10unique_ptrINS_12_Result_baseENS3_8_DeleterEEvEEPb,"x"
	.linkonce discard
	.align 2
	.globl	_ZNSt13__future_base13_State_baseV29_M_do_setEPSt8functionIFSt10unique_ptrINS_12_Result_baseENS3_8_DeleterEEvEEPb
	.def	_ZNSt13__future_base13_State_baseV29_M_do_setEPSt8functionIFSt10unique_ptrINS_12_Result_baseENS3_8_DeleterEEvEEPb;	.scl	2;	.type	32;	.endef
	.seh_proc	_ZNSt13__future_base13_State_baseV29_M_do_setEPSt8functionIFSt10unique_ptrINS_12_Result_baseENS3_8_DeleterEEvEEPb
_ZNSt13__future_base13_State_baseV29_M_do_setEPSt8functionIFSt10unique_ptrINS_12_Result_baseENS3_8_DeleterEEvEEPb:
.LFB3419:
	pushq	%rbp
	.seh_pushreg	%rbp
	movq	%rsp, %rbp
	.seh_setframe	%rbp, 0
	subq	$48, %rsp
	.seh_stackalloc	48
	.seh_endprologue
	movq	%rcx, 16(%rbp)
	movq	%rdx, 24(%rbp)
	movq	%r8, 32(%rbp)
	leaq	-8(%rbp), %rax
	movq	24(%rbp), %rdx
	movq	%rax, %rcx
	call	_ZNKSt8functionIFSt10unique_ptrINSt13__future_base12_Result_baseENS2_8_DeleterEEvEEclEv
	movq	32(%rbp), %rax
	movb	$1, (%rax)
	movq	16(%rbp), %rax
	leaq	8(%rax), %rcx
	leaq	-8(%rbp), %rax
	movq	%rax, %rdx
	call	_ZNSt10unique_ptrINSt13__future_base12_Result_baseENS1_8_DeleterEE4swapERS3_
	leaq	-8(%rbp), %rax
	movq	%rax, %rcx
	call	_ZNSt10unique_ptrINSt13__future_base12_Result_baseENS1_8_DeleterEED1Ev
	nop
	addq	$48, %rsp
	popq	%rbp
	ret
	.seh_endproc
	.section	.text$_ZNSt13__future_base13_State_baseV217_M_complete_asyncEv,"x"
	.linkonce discard
	.align 2
	.globl	_ZNSt13__future_base13_State_baseV217_M_complete_asyncEv
	.def	_ZNSt13__future_base13_State_baseV217_M_complete_asyncEv;	.scl	2;	.type	32;	.endef
	.seh_proc	_ZNSt13__future_base13_State_baseV217_M_complete_asyncEv
_ZNSt13__future_base13_State_baseV217_M_complete_asyncEv:
.LFB3426:
	pushq	%rbp
	.seh_pushreg	%rbp
	movq	%rsp, %rbp
	.seh_setframe	%rbp, 0
	.seh_endprologue
	movq	%rcx, 16(%rbp)
	nop
	popq	%rbp
	ret
	.seh_endproc
	.section	.text$_ZNKSt13__future_base13_State_baseV221_M_is_deferred_futureEv,"x"
	.linkonce discard
	.align 2
	.globl	_ZNKSt13__future_base13_State_baseV221_M_is_deferred_futureEv
	.def	_ZNKSt13__future_base13_State_baseV221_M_is_deferred_futureEv;	.scl	2;	.type	32;	.endef
	.seh_proc	_ZNKSt13__future_base13_State_baseV221_M_is_deferred_futureEv
_ZNKSt13__future_base13_State_baseV221_M_is_deferred_futureEv:
.LFB3427:
	pushq	%rbp
	.seh_pushreg	%rbp
	movq	%rsp, %rbp
	.seh_setframe	%rbp, 0
	.seh_endprologue
	movq	%rcx, 16(%rbp)
	movl	$0, %eax
	popq	%rbp
	ret
	.seh_endproc
	.section	.text$_ZNSt13__future_base7_ResultIvE10_M_destroyEv,"x"
	.linkonce discard
	.align 2
	.globl	_ZNSt13__future_base7_ResultIvE10_M_destroyEv
	.def	_ZNSt13__future_base7_ResultIvE10_M_destroyEv;	.scl	2;	.type	32;	.endef
	.seh_proc	_ZNSt13__future_base7_ResultIvE10_M_destroyEv
_ZNSt13__future_base7_ResultIvE10_M_destroyEv:
.LFB3433:
	pushq	%rbp
	.seh_pushreg	%rbp
	movq	%rsp, %rbp
	.seh_setframe	%rbp, 0
	subq	$32, %rsp
	.seh_stackalloc	32
	.seh_endprologue
	movq	%rcx, 16(%rbp)
	cmpq	$0, 16(%rbp)
	je	.L146
	movq	16(%rbp), %rax
	movq	(%rax), %rax
	addq	$16, %rax
	movq	(%rax), %rax
	movq	16(%rbp), %rcx
	call	*%rax
.L146:
	nop
	addq	$32, %rsp
	popq	%rbp
	ret
	.seh_endproc
	.section	.text$_ZNSt12__shared_ptrINSt13__future_base13_State_baseV2ELN9__gnu_cxx12_Lock_policyE2EED2Ev,"x"
	.linkonce discard
	.align 2
	.globl	_ZNSt12__shared_ptrINSt13__future_base13_State_baseV2ELN9__gnu_cxx12_Lock_policyE2EED2Ev
	.def	_ZNSt12__shared_ptrINSt13__future_base13_State_baseV2ELN9__gnu_cxx12_Lock_policyE2EED2Ev;	.scl	2;	.type	32;	.endef
	.seh_proc	_ZNSt12__shared_ptrINSt13__future_base13_State_baseV2ELN9__gnu_cxx12_Lock_policyE2EED2Ev
_ZNSt12__shared_ptrINSt13__future_base13_State_baseV2ELN9__gnu_cxx12_Lock_policyE2EED2Ev:
.LFB3458:
	pushq	%rbp
	.seh_pushreg	%rbp
	movq	%rsp, %rbp
	.seh_setframe	%rbp, 0
	subq	$32, %rsp
	.seh_stackalloc	32
	.seh_endprologue
	movq	%rcx, 16(%rbp)
	movq	16(%rbp), %rax
	addq	$8, %rax
	movq	%rax, %rcx
	call	_ZNSt14__shared_countILN9__gnu_cxx12_Lock_policyE2EED1Ev
	nop
	addq	$32, %rsp
	popq	%rbp
	ret
	.seh_endproc
	.section	.text$_ZNSt10shared_ptrINSt13__future_base13_State_baseV2EED1Ev,"x"
	.linkonce discard
	.align 2
	.globl	_ZNSt10shared_ptrINSt13__future_base13_State_baseV2EED1Ev
	.def	_ZNSt10shared_ptrINSt13__future_base13_State_baseV2EED1Ev;	.scl	2;	.type	32;	.endef
	.seh_proc	_ZNSt10shared_ptrINSt13__future_base13_State_baseV2EED1Ev
_ZNSt10shared_ptrINSt13__future_base13_State_baseV2EED1Ev:
.LFB3461:
	pushq	%rbp
	.seh_pushreg	%rbp
	movq	%rsp, %rbp
	.seh_setframe	%rbp, 0
	subq	$32, %rsp
	.seh_stackalloc	32
	.seh_endprologue
	movq	%rcx, 16(%rbp)
	movq	16(%rbp), %rax
	movq	%rax, %rcx
	call	_ZNSt12__shared_ptrINSt13__future_base13_State_baseV2ELN9__gnu_cxx12_Lock_policyE2EED2Ev
	nop
	addq	$32, %rsp
	popq	%rbp
	ret
	.seh_endproc
	.section	.text$_ZNSt14__basic_futureIvED2Ev,"x"
	.linkonce discard
	.align 2
	.globl	_ZNSt14__basic_futureIvED2Ev
	.def	_ZNSt14__basic_futureIvED2Ev;	.scl	2;	.type	32;	.endef
	.seh_proc	_ZNSt14__basic_futureIvED2Ev
_ZNSt14__basic_futureIvED2Ev:
.LFB3462:
	pushq	%rbp
	.seh_pushreg	%rbp
	movq	%rsp, %rbp
	.seh_setframe	%rbp, 0
	subq	$32, %rsp
	.seh_stackalloc	32
	.seh_endprologue
	movq	%rcx, 16(%rbp)
	movq	16(%rbp), %rax
	movq	%rax, %rcx
	call	_ZNSt10shared_ptrINSt13__future_base13_State_baseV2EED1Ev
	nop
	addq	$32, %rsp
	popq	%rbp
	ret
	.seh_endproc
	.section	.text$_ZNSt6futureIvEC1ERKSt10shared_ptrINSt13__future_base13_State_baseV2EE,"x"
	.linkonce discard
	.align 2
	.globl	_ZNSt6futureIvEC1ERKSt10shared_ptrINSt13__future_base13_State_baseV2EE
	.def	_ZNSt6futureIvEC1ERKSt10shared_ptrINSt13__future_base13_State_baseV2EE;	.scl	2;	.type	32;	.endef
	.seh_proc	_ZNSt6futureIvEC1ERKSt10shared_ptrINSt13__future_base13_State_baseV2EE
_ZNSt6futureIvEC1ERKSt10shared_ptrINSt13__future_base13_State_baseV2EE:
.LFB3465:
	pushq	%rbp
	.seh_pushreg	%rbp
	movq	%rsp, %rbp
	.seh_setframe	%rbp, 0
	subq	$32, %rsp
	.seh_stackalloc	32
	.seh_endprologue
	movq	%rcx, 16(%rbp)
	movq	%rdx, 24(%rbp)
	movq	16(%rbp), %rax
	movq	24(%rbp), %rdx
	movq	%rax, %rcx
	call	_ZNSt14__basic_futureIvEC2ERKSt10shared_ptrINSt13__future_base13_State_baseV2EE
	nop
	addq	$32, %rsp
	popq	%rbp
	ret
	.seh_endproc
	.section	.text$_ZNSt6futureIvEC1EOS0_,"x"
	.linkonce discard
	.align 2
	.globl	_ZNSt6futureIvEC1EOS0_
	.def	_ZNSt6futureIvEC1EOS0_;	.scl	2;	.type	32;	.endef
	.seh_proc	_ZNSt6futureIvEC1EOS0_
_ZNSt6futureIvEC1EOS0_:
.LFB3471:
	pushq	%rbp
	.seh_pushreg	%rbp
	pushq	%rbx
	.seh_pushreg	%rbx
	subq	$40, %rsp
	.seh_stackalloc	40
	leaq	128(%rsp), %rbp
	.seh_setframe	%rbp, 128
	.seh_endprologue
	movq	%rcx, -64(%rbp)
	movq	%rdx, -56(%rbp)
	movq	-64(%rbp), %rbx
	movq	-56(%rbp), %rax
	movq	%rax, %rcx
	call	_ZSt4moveIRSt6futureIvEEONSt16remove_referenceIT_E4typeEOS4_
	movq	%rax, %rdx
	movq	%rbx, %rcx
	call	_ZNSt14__basic_futureIvEC2EOSt6futureIvE
	nop
	addq	$40, %rsp
	popq	%rbx
	popq	%rbp
	ret
	.seh_endproc
	.section	.text$_ZNSt6futureIvED1Ev,"x"
	.linkonce discard
	.align 2
	.globl	_ZNSt6futureIvED1Ev
	.def	_ZNSt6futureIvED1Ev;	.scl	2;	.type	32;	.endef
	.seh_proc	_ZNSt6futureIvED1Ev
_ZNSt6futureIvED1Ev:
.LFB3475:
	pushq	%rbp
	.seh_pushreg	%rbp
	movq	%rsp, %rbp
	.seh_setframe	%rbp, 0
	subq	$32, %rsp
	.seh_stackalloc	32
	.seh_endprologue
	movq	%rcx, 16(%rbp)
	movq	16(%rbp), %rax
	movq	%rax, %rcx
	call	_ZNSt14__basic_futureIvED2Ev
	nop
	addq	$32, %rsp
	popq	%rbp
	ret
	.seh_endproc
	.section	.text$_ZNSt13__future_base7_ResultIvEC1Ev,"x"
	.linkonce discard
	.align 2
	.globl	_ZNSt13__future_base7_ResultIvEC1Ev
	.def	_ZNSt13__future_base7_ResultIvEC1Ev;	.scl	2;	.type	32;	.endef
	.seh_proc	_ZNSt13__future_base7_ResultIvEC1Ev
_ZNSt13__future_base7_ResultIvEC1Ev:
.LFB3553:
	pushq	%rbp
	.seh_pushreg	%rbp
	movq	%rsp, %rbp
	.seh_setframe	%rbp, 0
	subq	$32, %rsp
	.seh_stackalloc	32
	.seh_endprologue
	movq	%rcx, 16(%rbp)
	movq	16(%rbp), %rax
	movq	%rax, %rcx
	call	_ZNSt13__future_base12_Result_baseC2Ev
	leaq	16+_ZTVNSt13__future_base7_ResultIvEE(%rip), %rdx
	movq	16(%rbp), %rax
	movq	%rdx, (%rax)
	nop
	addq	$32, %rsp
	popq	%rbp
	ret
	.seh_endproc
	.section	.text$_ZNSt7promiseIvEC1Ev,"x"
	.linkonce discard
	.align 2
	.globl	_ZNSt7promiseIvEC1Ev
	.def	_ZNSt7promiseIvEC1Ev;	.scl	2;	.type	32;	.endef
	.seh_proc	_ZNSt7promiseIvEC1Ev
_ZNSt7promiseIvEC1Ev:
.LFB3556:
	pushq	%rbp
	.seh_pushreg	%rbp
	pushq	%rsi
	.seh_pushreg	%rsi
	pushq	%rbx
	.seh_pushreg	%rbx
	movq	%rsp, %rbp
	.seh_setframe	%rbp, 0
	subq	$32, %rsp
	.seh_stackalloc	32
	.seh_endprologue
	movq	%rcx, 32(%rbp)
	movq	32(%rbp), %rax
	movq	%rax, %rcx
.LEHB4:
	call	_ZSt11make_sharedINSt13__future_base13_State_baseV2EJEESt10shared_ptrIT_EDpOT0_
.LEHE4:
	movq	32(%rbp), %rax
	leaq	16(%rax), %rsi
	movl	$16, %ecx
.LEHB5:
	call	_Znwy
.LEHE5:
	movq	%rax, %rbx
	movq	$0, (%rbx)
	movq	$0, 8(%rbx)
	movq	%rbx, %rcx
.LEHB6:
	call	_ZNSt13__future_base7_ResultIvEC1Ev
.LEHE6:
	movq	%rbx, %rdx
	movq	%rsi, %rcx
	call	_ZNSt10unique_ptrINSt13__future_base7_ResultIvEENS0_12_Result_base8_DeleterEEC1IS4_vEEPS2_
	jmp	.L159
.L158:
	movq	%rax, %rsi
	movl	$16, %edx
	movq	%rbx, %rcx
	call	_ZdlPvy
	movq	%rsi, %rbx
	jmp	.L156
.L157:
	movq	%rax, %rbx
.L156:
	movq	32(%rbp), %rax
	movq	%rax, %rcx
	call	_ZNSt10shared_ptrINSt13__future_base13_State_baseV2EED1Ev
	movq	%rbx, %rax
	movq	%rax, %rcx
.LEHB7:
	call	_Unwind_Resume
	nop
.LEHE7:
.L159:
	addq	$32, %rsp
	popq	%rbx
	popq	%rsi
	popq	%rbp
	ret
	.seh_handler	__gxx_personality_seh0, @unwind, @except
	.seh_handlerdata
.LLSDA3556:
	.byte	0xff
	.byte	0xff
	.byte	0x1
	.uleb128 .LLSDACSE3556-.LLSDACSB3556
.LLSDACSB3556:
	.uleb128 .LEHB4-.LFB3556
	.uleb128 .LEHE4-.LEHB4
	.uleb128 0
	.uleb128 0
	.uleb128 .LEHB5-.LFB3556
	.uleb128 .LEHE5-.LEHB5
	.uleb128 .L157-.LFB3556
	.uleb128 0
	.uleb128 .LEHB6-.LFB3556
	.uleb128 .LEHE6-.LEHB6
	.uleb128 .L158-.LFB3556
	.uleb128 0
	.uleb128 .LEHB7-.LFB3556
	.uleb128 .LEHE7-.LEHB7
	.uleb128 0
	.uleb128 0
.LLSDACSE3556:
	.section	.text$_ZNSt7promiseIvEC1Ev,"x"
	.linkonce discard
	.seh_endproc
	.section	.text$_ZNSt15__uniq_ptr_dataINSt13__future_base7_ResultIvEENS0_12_Result_base8_DeleterELb1ELb1EEC1EOS5_,"x"
	.linkonce discard
	.align 2
	.globl	_ZNSt15__uniq_ptr_dataINSt13__future_base7_ResultIvEENS0_12_Result_base8_DeleterELb1ELb1EEC1EOS5_
	.def	_ZNSt15__uniq_ptr_dataINSt13__future_base7_ResultIvEENS0_12_Result_base8_DeleterELb1ELb1EEC1EOS5_;	.scl	2;	.type	32;	.endef
	.seh_proc	_ZNSt15__uniq_ptr_dataINSt13__future_base7_ResultIvEENS0_12_Result_base8_DeleterELb1ELb1EEC1EOS5_
_ZNSt15__uniq_ptr_dataINSt13__future_base7_ResultIvEENS0_12_Result_base8_DeleterELb1ELb1EEC1EOS5_:
.LFB3561:
	pushq	%rbp
	.seh_pushreg	%rbp
	movq	%rsp, %rbp
	.seh_setframe	%rbp, 0
	subq	$32, %rsp
	.seh_stackalloc	32
	.seh_endprologue
	movq	%rcx, 16(%rbp)
	movq	%rdx, 24(%rbp)
	movq	16(%rbp), %rax
	movq	24(%rbp), %rdx
	movq	%rax, %rcx
	call	_ZNSt15__uniq_ptr_implINSt13__future_base7_ResultIvEENS0_12_Result_base8_DeleterEEC2EOS5_
	nop
	addq	$32, %rsp
	popq	%rbp
	ret
	.seh_endproc
	.section	.text$_ZNSt10unique_ptrINSt13__future_base7_ResultIvEENS0_12_Result_base8_DeleterEEC1EOS5_,"x"
	.linkonce discard
	.align 2
	.globl	_ZNSt10unique_ptrINSt13__future_base7_ResultIvEENS0_12_Result_base8_DeleterEEC1EOS5_
	.def	_ZNSt10unique_ptrINSt13__future_base7_ResultIvEENS0_12_Result_base8_DeleterEEC1EOS5_;	.scl	2;	.type	32;	.endef
	.seh_proc	_ZNSt10unique_ptrINSt13__future_base7_ResultIvEENS0_12_Result_base8_DeleterEEC1EOS5_
_ZNSt10unique_ptrINSt13__future_base7_ResultIvEENS0_12_Result_base8_DeleterEEC1EOS5_:
.LFB3563:
	pushq	%rbp
	.seh_pushreg	%rbp
	movq	%rsp, %rbp
	.seh_setframe	%rbp, 0
	subq	$32, %rsp
	.seh_stackalloc	32
	.seh_endprologue
	movq	%rcx, 16(%rbp)
	movq	%rdx, 24(%rbp)
	movq	16(%rbp), %rax
	movq	24(%rbp), %rdx
	movq	%rax, %rcx
	call	_ZNSt15__uniq_ptr_dataINSt13__future_base7_ResultIvEENS0_12_Result_base8_DeleterELb1ELb1EEC1EOS5_
	nop
	addq	$32, %rsp
	popq	%rbp
	ret
	.seh_endproc
	.section	.text$_ZNSt7promiseIvED1Ev,"x"
	.linkonce discard
	.align 2
	.globl	_ZNSt7promiseIvED1Ev
	.def	_ZNSt7promiseIvED1Ev;	.scl	2;	.type	32;	.endef
	.seh_proc	_ZNSt7promiseIvED1Ev
_ZNSt7promiseIvED1Ev:
.LFB3570:
	pushq	%rbp
	.seh_pushreg	%rbp
	pushq	%rbx
	.seh_pushreg	%rbx
	subq	$56, %rsp
	.seh_stackalloc	56
	leaq	128(%rsp), %rbp
	.seh_setframe	%rbp, 128
	.seh_endprologue
	movq	%rcx, -48(%rbp)
	movq	-48(%rbp), %rax
	movq	%rax, %rcx
	call	_ZNKSt12__shared_ptrINSt13__future_base13_State_baseV2ELN9__gnu_cxx12_Lock_policyE2EEcvbEv
	testb	%al, %al
	je	.L163
	movq	-48(%rbp), %rax
	movq	%rax, %rcx
	call	_ZNKSt12__shared_ptrINSt13__future_base13_State_baseV2ELN9__gnu_cxx12_Lock_policyE2EE6uniqueEv
	xorl	$1, %eax
	testb	%al, %al
	je	.L163
	movl	$1, %eax
	jmp	.L164
.L163:
	movl	$0, %eax
.L164:
	testb	%al, %al
	je	.L165
	movq	-48(%rbp), %rax
	movq	%rax, %rcx
	call	_ZNKSt19__shared_ptr_accessINSt13__future_base13_State_baseV2ELN9__gnu_cxx12_Lock_policyE2ELb0ELb0EEptEv
	movq	%rax, %rbx
	movq	-48(%rbp), %rax
	addq	$16, %rax
	movq	%rax, %rcx
	call	_ZSt4moveIRSt10unique_ptrINSt13__future_base7_ResultIvEENS1_12_Result_base8_DeleterEEEONSt16remove_referenceIT_E4typeEOS9_
	movq	%rax, %rdx
	leaq	-88(%rbp), %rax
	movq	%rax, %rcx
	call	_ZNSt10unique_ptrINSt13__future_base12_Result_baseENS1_8_DeleterEEC1INS0_7_ResultIvEES2_vEEOS_IT_T0_E
	leaq	-88(%rbp), %rax
	movq	%rax, %rdx
	movq	%rbx, %rcx
	call	_ZNSt13__future_base13_State_baseV216_M_break_promiseESt10unique_ptrINS_12_Result_baseENS2_8_DeleterEE
	leaq	-88(%rbp), %rax
	movq	%rax, %rcx
	call	_ZNSt10unique_ptrINSt13__future_base12_Result_baseENS1_8_DeleterEED1Ev
.L165:
	movq	-48(%rbp), %rax
	addq	$16, %rax
	movq	%rax, %rcx
	call	_ZNSt10unique_ptrINSt13__future_base7_ResultIvEENS0_12_Result_base8_DeleterEED1Ev
	movq	-48(%rbp), %rax
	movq	%rax, %rcx
	call	_ZNSt10shared_ptrINSt13__future_base13_State_baseV2EED1Ev
	nop
	addq	$56, %rsp
	popq	%rbx
	popq	%rbp
	ret
	.seh_handler	__gxx_personality_seh0, @unwind, @except
	.seh_handlerdata
.LLSDA3570:
	.byte	0xff
	.byte	0xff
	.byte	0x1
	.uleb128 .LLSDACSE3570-.LLSDACSB3570
.LLSDACSB3570:
.LLSDACSE3570:
	.section	.text$_ZNSt7promiseIvED1Ev,"x"
	.linkonce discard
	.seh_endproc
	.section	.text$_ZNSt7promiseIvE10get_futureEv,"x"
	.linkonce discard
	.align 2
	.globl	_ZNSt7promiseIvE10get_futureEv
	.def	_ZNSt7promiseIvE10get_futureEv;	.scl	2;	.type	32;	.endef
	.seh_proc	_ZNSt7promiseIvE10get_futureEv
_ZNSt7promiseIvE10get_futureEv:
.LFB3573:
	pushq	%rbp
	.seh_pushreg	%rbp
	movq	%rsp, %rbp
	.seh_setframe	%rbp, 0
	subq	$32, %rsp
	.seh_stackalloc	32
	.seh_endprologue
	movq	%rcx, 16(%rbp)
	movq	%rdx, 24(%rbp)
	movq	24(%rbp), %rax
	movq	%rax, %rdx
	movq	16(%rbp), %rcx
	call	_ZNSt6futureIvEC1ERKSt10shared_ptrINSt13__future_base13_State_baseV2EE
	movq	16(%rbp), %rax
	addq	$32, %rsp
	popq	%rbp
	ret
	.seh_endproc
	.section	.text$_ZNSt8functionIFSt10unique_ptrINSt13__future_base12_Result_baseENS2_8_DeleterEEvEED1Ev,"x"
	.linkonce discard
	.align 2
	.globl	_ZNSt8functionIFSt10unique_ptrINSt13__future_base12_Result_baseENS2_8_DeleterEEvEED1Ev
	.def	_ZNSt8functionIFSt10unique_ptrINSt13__future_base12_Result_baseENS2_8_DeleterEEvEED1Ev;	.scl	2;	.type	32;	.endef
	.seh_proc	_ZNSt8functionIFSt10unique_ptrINSt13__future_base12_Result_baseENS2_8_DeleterEEvEED1Ev
_ZNSt8functionIFSt10unique_ptrINSt13__future_base12_Result_baseENS2_8_DeleterEEvEED1Ev:
.LFB3577:
	pushq	%rbp
	.seh_pushreg	%rbp
	movq	%rsp, %rbp
	.seh_setframe	%rbp, 0
	subq	$32, %rsp
	.seh_stackalloc	32
	.seh_endprologue
	movq	%rcx, 16(%rbp)
	movq	16(%rbp), %rax
	movq	%rax, %rcx
	call	_ZNSt14_Function_baseD2Ev
	nop
	addq	$32, %rsp
	popq	%rbp
	ret
	.seh_endproc
	.section	.text$_ZNSt7promiseIvE9set_valueEv,"x"
	.linkonce discard
	.align 2
	.globl	_ZNSt7promiseIvE9set_valueEv
	.def	_ZNSt7promiseIvE9set_valueEv;	.scl	2;	.type	32;	.endef
	.seh_proc	_ZNSt7promiseIvE9set_valueEv
_ZNSt7promiseIvE9set_valueEv:
.LFB3574:
	pushq	%rbp
	.seh_pushreg	%rbp
	pushq	%rbx
	.seh_pushreg	%rbx
	subq	$72, %rsp
	.seh_stackalloc	72
	leaq	128(%rsp), %rbp
	.seh_setframe	%rbp, 128
	.seh_endprologue
	movq	%rcx, -32(%rbp)
	movq	-32(%rbp), %rax
	movq	%rax, %rcx
	call	_ZNKSt19__shared_ptr_accessINSt13__future_base13_State_baseV2ELN9__gnu_cxx12_Lock_policyE2ELb0ELb0EEptEv
	movq	%rax, %rbx
	movq	-32(%rbp), %rcx
.LEHB8:
	call	_ZNSt13__future_base13_State_baseV28__setterIvEENS0_7_SetterIT_vEEPSt7promiseIS3_E
	movq	%rax, %rdx
	leaq	-96(%rbp), %rax
	movq	%rax, %rcx
	call	_ZNSt8functionIFSt10unique_ptrINSt13__future_base12_Result_baseENS2_8_DeleterEEvEEC1INS1_13_State_baseV27_SetterIvvEEvvEET_
.LEHE8:
	leaq	-96(%rbp), %rax
	movl	$0, %r8d
	movq	%rax, %rdx
	movq	%rbx, %rcx
.LEHB9:
	call	_ZNSt13__future_base13_State_baseV213_M_set_resultESt8functionIFSt10unique_ptrINS_12_Result_baseENS3_8_DeleterEEvEEb
.LEHE9:
	leaq	-96(%rbp), %rax
	movq	%rax, %rcx
	call	_ZNSt8functionIFSt10unique_ptrINSt13__future_base12_Result_baseENS2_8_DeleterEEvEED1Ev
	jmp	.L172
.L171:
	movq	%rax, %rbx
	leaq	-96(%rbp), %rax
	movq	%rax, %rcx
	call	_ZNSt8functionIFSt10unique_ptrINSt13__future_base12_Result_baseENS2_8_DeleterEEvEED1Ev
	movq	%rbx, %rax
	movq	%rax, %rcx
.LEHB10:
	call	_Unwind_Resume
	nop
.LEHE10:
.L172:
	addq	$72, %rsp
	popq	%rbx
	popq	%rbp
	ret
	.seh_handler	__gxx_personality_seh0, @unwind, @except
	.seh_handlerdata
.LLSDA3574:
	.byte	0xff
	.byte	0xff
	.byte	0x1
	.uleb128 .LLSDACSE3574-.LLSDACSB3574
.LLSDACSB3574:
	.uleb128 .LEHB8-.LFB3574
	.uleb128 .LEHE8-.LEHB8
	.uleb128 0
	.uleb128 0
	.uleb128 .LEHB9-.LFB3574
	.uleb128 .LEHE9-.LEHB9
	.uleb128 .L171-.LFB3574
	.uleb128 0
	.uleb128 .LEHB10-.LFB3574
	.uleb128 .LEHE10-.LEHB10
	.uleb128 0
	.uleb128 0
.LLSDACSE3574:
	.section	.text$_ZNSt7promiseIvE9set_valueEv,"x"
	.linkonce discard
	.seh_endproc
	.section	.text$_ZSt4setwi,"x"
	.linkonce discard
	.globl	_ZSt4setwi
	.def	_ZSt4setwi;	.scl	2;	.type	32;	.endef
	.seh_proc	_ZSt4setwi
_ZSt4setwi:
.LFB4135:
	pushq	%rbp
	.seh_pushreg	%rbp
	movq	%rsp, %rbp
	.seh_setframe	%rbp, 0
	.seh_endprologue
	movl	%ecx, 16(%rbp)
	movl	16(%rbp), %eax
	popq	%rbp
	ret
	.seh_endproc
	.section	.text$_ZN5boost10error_infoINS_15throw_function_EPKcEC1ES3_,"x"
	.linkonce discard
	.align 2
	.globl	_ZN5boost10error_infoINS_15throw_function_EPKcEC1ES3_
	.def	_ZN5boost10error_infoINS_15throw_function_EPKcEC1ES3_;	.scl	2;	.type	32;	.endef
	.seh_proc	_ZN5boost10error_infoINS_15throw_function_EPKcEC1ES3_
_ZN5boost10error_infoINS_15throw_function_EPKcEC1ES3_:
.LFB4159:
	pushq	%rbp
	.seh_pushreg	%rbp
	movq	%rsp, %rbp
	.seh_setframe	%rbp, 0
	.seh_endprologue
	movq	%rcx, 16(%rbp)
	movq	%rdx, 24(%rbp)
	movq	16(%rbp), %rax
	movq	24(%rbp), %rdx
	movq	%rdx, (%rax)
	nop
	popq	%rbp
	ret
	.seh_endproc
	.section	.text$_ZN5boost10error_infoINS_11throw_file_EPKcEC1ES3_,"x"
	.linkonce discard
	.align 2
	.globl	_ZN5boost10error_infoINS_11throw_file_EPKcEC1ES3_
	.def	_ZN5boost10error_infoINS_11throw_file_EPKcEC1ES3_;	.scl	2;	.type	32;	.endef
	.seh_proc	_ZN5boost10error_infoINS_11throw_file_EPKcEC1ES3_
_ZN5boost10error_infoINS_11throw_file_EPKcEC1ES3_:
.LFB4162:
	pushq	%rbp
	.seh_pushreg	%rbp
	movq	%rsp, %rbp
	.seh_setframe	%rbp, 0
	.seh_endprologue
	movq	%rcx, 16(%rbp)
	movq	%rdx, 24(%rbp)
	movq	16(%rbp), %rax
	movq	24(%rbp), %rdx
	movq	%rdx, (%rax)
	nop
	popq	%rbp
	ret
	.seh_endproc
	.section	.text$_ZN5boost10error_infoINS_11throw_line_EiEC1Ei,"x"
	.linkonce discard
	.align 2
	.globl	_ZN5boost10error_infoINS_11throw_line_EiEC1Ei
	.def	_ZN5boost10error_infoINS_11throw_line_EiEC1Ei;	.scl	2;	.type	32;	.endef
	.seh_proc	_ZN5boost10error_infoINS_11throw_line_EiEC1Ei
_ZN5boost10error_infoINS_11throw_line_EiEC1Ei:
.LFB4165:
	pushq	%rbp
	.seh_pushreg	%rbp
	movq	%rsp, %rbp
	.seh_setframe	%rbp, 0
	.seh_endprologue
	movq	%rcx, 16(%rbp)
	movl	%edx, 24(%rbp)
	movq	16(%rbp), %rax
	movl	24(%rbp), %edx
	movl	%edx, (%rax)
	nop
	popq	%rbp
	ret
	.seh_endproc
	.section	.text$_ZN5boost9exceptionC2Ev,"x"
	.linkonce discard
	.align 2
	.globl	_ZN5boost9exceptionC2Ev
	.def	_ZN5boost9exceptionC2Ev;	.scl	2;	.type	32;	.endef
	.seh_proc	_ZN5boost9exceptionC2Ev
_ZN5boost9exceptionC2Ev:
.LFB4170:
	pushq	%rbp
	.seh_pushreg	%rbp
	movq	%rsp, %rbp
	.seh_setframe	%rbp, 0
	subq	$32, %rsp
	.seh_stackalloc	32
	.seh_endprologue
	movq	%rcx, 16(%rbp)
	leaq	16+_ZTVN5boost9exceptionE(%rip), %rdx
	movq	16(%rbp), %rax
	movq	%rdx, (%rax)
	movq	16(%rbp), %rax
	addq	$8, %rax
	movq	%rax, %rcx
	call	_ZN5boost16exception_detail12refcount_ptrINS0_20error_info_containerEEC1Ev
	movq	16(%rbp), %rax
	movq	$0, 16(%rax)
	movq	16(%rbp), %rax
	movq	$0, 24(%rax)
	movq	16(%rbp), %rax
	movl	$-1, 32(%rax)
	nop
	addq	$32, %rsp
	popq	%rbp
	ret
	.seh_endproc
	.section	.text$_ZN5boost9exceptionD2Ev,"x"
	.linkonce discard
	.align 2
	.globl	_ZN5boost9exceptionD2Ev
	.def	_ZN5boost9exceptionD2Ev;	.scl	2;	.type	32;	.endef
	.seh_proc	_ZN5boost9exceptionD2Ev
_ZN5boost9exceptionD2Ev:
.LFB4173:
	pushq	%rbp
	.seh_pushreg	%rbp
	movq	%rsp, %rbp
	.seh_setframe	%rbp, 0
	subq	$32, %rsp
	.seh_stackalloc	32
	.seh_endprologue
	movq	%rcx, 16(%rbp)
	leaq	16+_ZTVN5boost9exceptionE(%rip), %rdx
	movq	16(%rbp), %rax
	movq	%rdx, (%rax)
	movq	16(%rbp), %rax
	addq	$8, %rax
	movq	%rax, %rcx
	call	_ZN5boost16exception_detail12refcount_ptrINS0_20error_info_containerEED1Ev
	nop
	addq	$32, %rsp
	popq	%rbp
	ret
	.seh_endproc
	.section	.text$_ZN5boost16exception_detail10clone_baseD2Ev,"x"
	.linkonce discard
	.align 2
	.globl	_ZN5boost16exception_detail10clone_baseD2Ev
	.def	_ZN5boost16exception_detail10clone_baseD2Ev;	.scl	2;	.type	32;	.endef
	.seh_proc	_ZN5boost16exception_detail10clone_baseD2Ev
_ZN5boost16exception_detail10clone_baseD2Ev:
.LFB4183:
	pushq	%rbp
	.seh_pushreg	%rbp
	movq	%rsp, %rbp
	.seh_setframe	%rbp, 0
	.seh_endprologue
	movq	%rcx, 16(%rbp)
	leaq	16+_ZTVN5boost16exception_detail10clone_baseE(%rip), %rdx
	movq	16(%rbp), %rax
	movq	%rdx, (%rax)
	nop
	popq	%rbp
	ret
	.seh_endproc
	.section	.text$_ZN5boost16exception_detail20copy_boost_exceptionEPNS_9exceptionEPKS1_,"x"
	.linkonce discard
	.globl	_ZN5boost16exception_detail20copy_boost_exceptionEPNS_9exceptionEPKS1_
	.def	_ZN5boost16exception_detail20copy_boost_exceptionEPNS_9exceptionEPKS1_;	.scl	2;	.type	32;	.endef
	.seh_proc	_ZN5boost16exception_detail20copy_boost_exceptionEPNS_9exceptionEPKS1_
_ZN5boost16exception_detail20copy_boost_exceptionEPNS_9exceptionEPKS1_:
.LFB4186:
	pushq	%rbp
	.seh_pushreg	%rbp
	pushq	%rbx
	.seh_pushreg	%rbx
	subq	$72, %rsp
	.seh_stackalloc	72
	leaq	128(%rsp), %rbp
	.seh_setframe	%rbp, 128
	.seh_endprologue
	movq	%rcx, -32(%rbp)
	movq	%rdx, -24(%rbp)
	leaq	-88(%rbp), %rax
	movq	%rax, %rcx
	call	_ZN5boost16exception_detail12refcount_ptrINS0_20error_info_containerEEC1Ev
	movq	-24(%rbp), %rax
	addq	$8, %rax
	movq	%rax, %rcx
	call	_ZNK5boost16exception_detail12refcount_ptrINS0_20error_info_containerEE3getEv
	movq	%rax, -72(%rbp)
	cmpq	$0, -72(%rbp)
	je	.L182
	movq	-72(%rbp), %rax
	movq	(%rax), %rax
	addq	$40, %rax
	movq	(%rax), %r8
	leaq	-80(%rbp), %rax
	movq	-72(%rbp), %rdx
	movq	%rax, %rcx
.LEHB11:
	call	*%r8
.LEHE11:
	leaq	-80(%rbp), %rdx
	leaq	-88(%rbp), %rax
	movq	%rax, %rcx
.LEHB12:
	call	_ZN5boost16exception_detail12refcount_ptrINS0_20error_info_containerEEaSERKS3_
.LEHE12:
	leaq	-80(%rbp), %rax
	movq	%rax, %rcx
	call	_ZN5boost16exception_detail12refcount_ptrINS0_20error_info_containerEED1Ev
.L182:
	movq	-24(%rbp), %rax
	movq	24(%rax), %rdx
	movq	-32(%rbp), %rax
	movq	%rdx, 24(%rax)
	movq	-24(%rbp), %rax
	movl	32(%rax), %edx
	movq	-32(%rbp), %rax
	movl	%edx, 32(%rax)
	movq	-24(%rbp), %rax
	movq	16(%rax), %rdx
	movq	-32(%rbp), %rax
	movq	%rdx, 16(%rax)
	movq	-32(%rbp), %rax
	leaq	8(%rax), %rcx
	leaq	-88(%rbp), %rax
	movq	%rax, %rdx
.LEHB13:
	call	_ZN5boost16exception_detail12refcount_ptrINS0_20error_info_containerEEaSERKS3_
.LEHE13:
	leaq	-88(%rbp), %rax
	movq	%rax, %rcx
	call	_ZN5boost16exception_detail12refcount_ptrINS0_20error_info_containerEED1Ev
	jmp	.L187
.L186:
	movq	%rax, %rbx
	leaq	-80(%rbp), %rax
	movq	%rax, %rcx
	call	_ZN5boost16exception_detail12refcount_ptrINS0_20error_info_containerEED1Ev
	jmp	.L184
.L185:
	movq	%rax, %rbx
.L184:
	leaq	-88(%rbp), %rax
	movq	%rax, %rcx
	call	_ZN5boost16exception_detail12refcount_ptrINS0_20error_info_containerEED1Ev
	movq	%rbx, %rax
	movq	%rax, %rcx
.LEHB14:
	call	_Unwind_Resume
	nop
.LEHE14:
.L187:
	addq	$72, %rsp
	popq	%rbx
	popq	%rbp
	ret
	.seh_handler	__gxx_personality_seh0, @unwind, @except
	.seh_handlerdata
.LLSDA4186:
	.byte	0xff
	.byte	0xff
	.byte	0x1
	.uleb128 .LLSDACSE4186-.LLSDACSB4186
.LLSDACSB4186:
	.uleb128 .LEHB11-.LFB4186
	.uleb128 .LEHE11-.LEHB11
	.uleb128 .L185-.LFB4186
	.uleb128 0
	.uleb128 .LEHB12-.LFB4186
	.uleb128 .LEHE12-.LEHB12
	.uleb128 .L186-.LFB4186
	.uleb128 0
	.uleb128 .LEHB13-.LFB4186
	.uleb128 .LEHE13-.LEHB13
	.uleb128 .L185-.LFB4186
	.uleb128 0
	.uleb128 .LEHB14-.LFB4186
	.uleb128 .LEHE14-.LEHB14
	.uleb128 0
	.uleb128 0
.LLSDACSE4186:
	.section	.text$_ZN5boost16exception_detail20copy_boost_exceptionEPNS_9exceptionEPKS1_,"x"
	.linkonce discard
	.seh_endproc
	.section	.text$_ZN5boost15source_locationC1EPKcjS2_j,"x"
	.linkonce discard
	.align 2
	.globl	_ZN5boost15source_locationC1EPKcjS2_j
	.def	_ZN5boost15source_locationC1EPKcjS2_j;	.scl	2;	.type	32;	.endef
	.seh_proc	_ZN5boost15source_locationC1EPKcjS2_j
_ZN5boost15source_locationC1EPKcjS2_j:
.LFB4200:
	pushq	%rbp
	.seh_pushreg	%rbp
	movq	%rsp, %rbp
	.seh_setframe	%rbp, 0
	.seh_endprologue
	movq	%rcx, 16(%rbp)
	movq	%rdx, 24(%rbp)
	movl	%r8d, 32(%rbp)
	movq	%r9, 40(%rbp)
	movq	16(%rbp), %rax
	movq	24(%rbp), %rdx
	movq	%rdx, (%rax)
	movq	16(%rbp), %rax
	movq	40(%rbp), %rdx
	movq	%rdx, 8(%rax)
	movq	16(%rbp), %rax
	movl	32(%rbp), %edx
	movl	%edx, 16(%rax)
	movq	16(%rbp), %rax
	movl	48(%rbp), %edx
	movl	%edx, 20(%rax)
	nop
	popq	%rbp
	ret
	.seh_endproc
	.section	.text$_ZNK5boost15source_location9file_nameEv,"x"
	.linkonce discard
	.align 2
	.globl	_ZNK5boost15source_location9file_nameEv
	.def	_ZNK5boost15source_location9file_nameEv;	.scl	2;	.type	32;	.endef
	.seh_proc	_ZNK5boost15source_location9file_nameEv
_ZNK5boost15source_location9file_nameEv:
.LFB4201:
	pushq	%rbp
	.seh_pushreg	%rbp
	movq	%rsp, %rbp
	.seh_setframe	%rbp, 0
	.seh_endprologue
	movq	%rcx, 16(%rbp)
	movq	16(%rbp), %rax
	movq	(%rax), %rax
	popq	%rbp
	ret
	.seh_endproc
	.section	.text$_ZNK5boost15source_location13function_nameEv,"x"
	.linkonce discard
	.align 2
	.globl	_ZNK5boost15source_location13function_nameEv
	.def	_ZNK5boost15source_location13function_nameEv;	.scl	2;	.type	32;	.endef
	.seh_proc	_ZNK5boost15source_location13function_nameEv
_ZNK5boost15source_location13function_nameEv:
.LFB4202:
	pushq	%rbp
	.seh_pushreg	%rbp
	movq	%rsp, %rbp
	.seh_setframe	%rbp, 0
	.seh_endprologue
	movq	%rcx, 16(%rbp)
	movq	16(%rbp), %rax
	movq	8(%rax), %rax
	popq	%rbp
	ret
	.seh_endproc
	.section	.text$_ZNK5boost15source_location4lineEv,"x"
	.linkonce discard
	.align 2
	.globl	_ZNK5boost15source_location4lineEv
	.def	_ZNK5boost15source_location4lineEv;	.scl	2;	.type	32;	.endef
	.seh_proc	_ZNK5boost15source_location4lineEv
_ZNK5boost15source_location4lineEv:
.LFB4203:
	pushq	%rbp
	.seh_pushreg	%rbp
	movq	%rsp, %rbp
	.seh_setframe	%rbp, 0
	.seh_endprologue
	movq	%rcx, 16(%rbp)
	movq	16(%rbp), %rax
	movl	16(%rax), %eax
	popq	%rbp
	ret
	.seh_endproc
	.section	.text$_ZN5boost36throw_exception_assert_compatibilityERKSt9exception,"x"
	.linkonce discard
	.globl	_ZN5boost36throw_exception_assert_compatibilityERKSt9exception
	.def	_ZN5boost36throw_exception_assert_compatibilityERKSt9exception;	.scl	2;	.type	32;	.endef
	.seh_proc	_ZN5boost36throw_exception_assert_compatibilityERKSt9exception
_ZN5boost36throw_exception_assert_compatibilityERKSt9exception:
.LFB4213:
	pushq	%rbp
	.seh_pushreg	%rbp
	movq	%rsp, %rbp
	.seh_setframe	%rbp, 0
	.seh_endprologue
	movq	%rcx, 16(%rbp)
	nop
	popq	%rbp
	ret
	.seh_endproc
	.section .rdata,"dr"
	.align 8
_ZN5boost9containerL19ADP_nodes_per_blockE:
	.quad	256
	.align 8
_ZN5boost9containerL19ADP_max_free_blocksE:
	.quad	2
	.align 8
_ZN5boost9containerL20ADP_overhead_percentE:
	.quad	1
	.align 8
_ZN5boost9containerL18ADP_only_alignmentE:
	.space 8
	.align 8
_ZN5boost9containerL25NodeAlloc_nodes_per_blockE:
	.quad	256
_ZN5boost9containerL13ordered_rangeE:
	.space 1
_ZN5boost9containerL20ordered_unique_rangeE:
	.space 1
_ZN5boost9containerL12default_initE:
	.space 1
_ZN5boost9containerL10value_initE:
	.space 1
	.align 4
_ZN5boost4coreL7fp_zeroE:
	.long	16384
	.align 4
_ZN5boost4coreL12fp_subnormalE:
	.long	17408
	.align 4
_ZN5boost4coreL9fp_normalE:
	.long	1024
	.align 4
_ZN5boost4coreL11fp_infiniteE:
	.long	1280
	.align 4
_ZN5boost4coreL6fp_nanE:
	.long	256
	.align 4
_ZN5boost6detail16static_log2_implL6n_zeroE:
	.long	16
	.align 4
_ZN5boost6detail16static_log2_implL9initial_nE:
	.long	32
_ZN5boostL10empty_initE:
	.space 1
	.align 8
_ZN5boost14multiprecisionL12max_block_10E:
	.quad	1000000000000000000
	.align 8
_ZN5boost14multiprecisionL19digits_per_block_10E:
	.quad	18
	.align 4
_ZN5boost14multiprecisionL13bits_per_limbE:
	.long	64
	.section	.text$_ZN5boost14multiprecision8backends6detail15verify_new_sizeEjjRKSt17integral_constantIiLi0EE,"x"
	.linkonce discard
	.globl	_ZN5boost14multiprecision8backends6detail15verify_new_sizeEjjRKSt17integral_constantIiLi0EE
	.def	_ZN5boost14multiprecision8backends6detail15verify_new_sizeEjjRKSt17integral_constantIiLi0EE;	.scl	2;	.type	32;	.endef
	.seh_proc	_ZN5boost14multiprecision8backends6detail15verify_new_sizeEjjRKSt17integral_constantIiLi0EE
_ZN5boost14multiprecision8backends6detail15verify_new_sizeEjjRKSt17integral_constantIiLi0EE:
.LFB9296:
	pushq	%rbp
	.seh_pushreg	%rbp
	movq	%rsp, %rbp
	.seh_setframe	%rbp, 0
	.seh_endprologue
	movl	%ecx, 16(%rbp)
	movl	%edx, 24(%rbp)
	movq	%r8, 32(%rbp)
	nop
	popq	%rbp
	ret
	.seh_endproc
	.section	.text$_ZN5boost14multiprecision6detail13addcarry_limbEhyyPy,"x"
	.linkonce discard
	.globl	_ZN5boost14multiprecision6detail13addcarry_limbEhyyPy
	.def	_ZN5boost14multiprecision6detail13addcarry_limbEhyyPy;	.scl	2;	.type	32;	.endef
	.seh_proc	_ZN5boost14multiprecision6detail13addcarry_limbEhyyPy
_ZN5boost14multiprecision6detail13addcarry_limbEhyyPy:
.LFB13151:
	pushq	%rbp
	.seh_pushreg	%rbp
	movq	%rsp, %rbp
	.seh_setframe	%rbp, 0
	.seh_endprologue
	movl	%ecx, %eax
	movq	%rdx, 24(%rbp)
	movq	%r8, 32(%rbp)
	movq	%r9, 40(%rbp)
	movb	%al, 16(%rbp)
	movzbl	16(%rbp), %eax
	movl	%eax, %r8d
	movq	24(%rbp), %rcx
	movq	32(%rbp), %rax
	movq	40(%rbp), %rdx
	addb	$-1, %r8b
	adcq	%rcx, %rax
	setc	%cl
	movq	%rax, (%rdx)
	movl	%ecx, %eax
	popq	%rbp
	ret
	.seh_endproc
	.section	.text$_ZN5boost14multiprecision6detail14subborrow_limbEhyyPy,"x"
	.linkonce discard
	.globl	_ZN5boost14multiprecision6detail14subborrow_limbEhyyPy
	.def	_ZN5boost14multiprecision6detail14subborrow_limbEhyyPy;	.scl	2;	.type	32;	.endef
	.seh_proc	_ZN5boost14multiprecision6detail14subborrow_limbEhyyPy
_ZN5boost14multiprecision6detail14subborrow_limbEhyyPy:
.LFB13152:
	pushq	%rbp
	.seh_pushreg	%rbp
	movq	%rsp, %rbp
	.seh_setframe	%rbp, 0
	.seh_endprologue
	movl	%ecx, %eax
	movq	%rdx, 24(%rbp)
	movq	%r8, 32(%rbp)
	movq	%r9, 40(%rbp)
	movb	%al, 16(%rbp)
	movzbl	16(%rbp), %eax
	movl	%eax, %r8d
	movq	24(%rbp), %rdx
	movq	32(%rbp), %rcx
	movq	40(%rbp), %rax
	addb	$-1, %r8b
	sbbq	%rcx, %rdx
	setc	%cl
	movq	%rdx, (%rax)
	movl	%ecx, %eax
	popq	%rbp
	ret
	.seh_endproc
	.section .rdata,"dr"
	.align 8
_ZN5boost14multiprecision8backendsL16karatsuba_cutoffE:
	.quad	40
	.section	.text$_ZN5boost14multiprecision8backends17check_is_negativeERKSt17integral_constantIbLb1EE,"x"
	.linkonce discard
	.globl	_ZN5boost14multiprecision8backends17check_is_negativeERKSt17integral_constantIbLb1EE
	.def	_ZN5boost14multiprecision8backends17check_is_negativeERKSt17integral_constantIbLb1EE;	.scl	2;	.type	32;	.endef
	.seh_proc	_ZN5boost14multiprecision8backends17check_is_negativeERKSt17integral_constantIbLb1EE
_ZN5boost14multiprecision8backends17check_is_negativeERKSt17integral_constantIbLb1EE:
.LFB13304:
	pushq	%rbp
	.seh_pushreg	%rbp
	movq	%rsp, %rbp
	.seh_setframe	%rbp, 0
	.seh_endprologue
	movq	%rcx, 16(%rbp)
	nop
	popq	%rbp
	ret
	.seh_endproc
	.section .rdata,"dr"
	.align 8
.LC2:
	.ascii "void boost::multiprecision::backends::check_is_negative(const std::integral_constant<bool, false>&)\0"
	.align 8
.LC3:
	.ascii "C:/msys64/mingw64/include/c++/10.2.0/boost/multiprecision/cpp_int/misc.hpp\0"
	.align 8
.LC4:
	.ascii "Attempt to assign a negative value to an unsigned type.\0"
	.section	.text$_ZN5boost14multiprecision8backends17check_is_negativeERKSt17integral_constantIbLb0EE,"x"
	.linkonce discard
	.globl	_ZN5boost14multiprecision8backends17check_is_negativeERKSt17integral_constantIbLb0EE
	.def	_ZN5boost14multiprecision8backends17check_is_negativeERKSt17integral_constantIbLb0EE;	.scl	2;	.type	32;	.endef
	.seh_proc	_ZN5boost14multiprecision8backends17check_is_negativeERKSt17integral_constantIbLb0EE
_ZN5boost14multiprecision8backends17check_is_negativeERKSt17integral_constantIbLb0EE:
.LFB13305:
	pushq	%rbp
	.seh_pushreg	%rbp
	pushq	%rbx
	.seh_pushreg	%rbx
	subq	$104, %rsp
	.seh_stackalloc	104
	leaq	128(%rsp), %rbp
	.seh_setframe	%rbp, 128
	.seh_endprologue
	movq	%rcx, 0(%rbp)
	leaq	-80(%rbp), %rax
	movl	$0, 32(%rsp)
	leaq	.LC2(%rip), %r9
	movl	$64, %r8d
	leaq	.LC3(%rip), %rdx
	movq	%rax, %rcx
	call	_ZN5boost15source_locationC1EPKcjS2_j
	leaq	-48(%rbp), %rax
	leaq	.LC4(%rip), %rdx
	movq	%rax, %rcx
.LEHB15:
	call	_ZNSt11range_errorC1EPKc
.LEHE15:
	leaq	-80(%rbp), %rdx
	leaq	-48(%rbp), %rax
	movq	%rax, %rcx
.LEHB16:
	call	_ZN5boost15throw_exceptionISt11range_errorEEvRKT_RKNS_15source_locationE
.LEHE16:
.L204:
	movq	%rax, %rbx
	leaq	-48(%rbp), %rax
	movq	%rax, %rcx
	call	_ZNSt11range_errorD1Ev
	movq	%rbx, %rax
	movq	%rax, %rcx
.LEHB17:
	call	_Unwind_Resume
	nop
.LEHE17:
	.seh_handler	__gxx_personality_seh0, @unwind, @except
	.seh_handlerdata
.LLSDA13305:
	.byte	0xff
	.byte	0xff
	.byte	0x1
	.uleb128 .LLSDACSE13305-.LLSDACSB13305
.LLSDACSB13305:
	.uleb128 .LEHB15-.LFB13305
	.uleb128 .LEHE15-.LEHB15
	.uleb128 0
	.uleb128 0
	.uleb128 .LEHB16-.LFB13305
	.uleb128 .LEHE16-.LEHB16
	.uleb128 .L204-.LFB13305
	.uleb128 0
	.uleb128 .LEHB17-.LFB13305
	.uleb128 .LEHE17-.LEHB17
	.uleb128 0
	.uleb128 0
.LLSDACSE13305:
	.section	.text$_ZN5boost14multiprecision8backends17check_is_negativeERKSt17integral_constantIbLb0EE,"x"
	.linkonce discard
	.seh_endproc
	.section .rdata,"dr"
.LC5:
	.ascii "FATAL\0"
.LC6:
	.ascii "ERROR\0"
.LC7:
	.ascii "WARN\0"
.LC8:
	.ascii "INFO\0"
.LC9:
	.ascii "DEBUG\0"
.LC10:
	.ascii "VERB\0"
.LC11:
	.ascii "NONE\0"
	.section	.text$_ZN4plog16severityToStringENS_8SeverityE,"x"
	.linkonce discard
	.globl	_ZN4plog16severityToStringENS_8SeverityE
	.def	_ZN4plog16severityToStringENS_8SeverityE;	.scl	2;	.type	32;	.endef
	.seh_proc	_ZN4plog16severityToStringENS_8SeverityE
_ZN4plog16severityToStringENS_8SeverityE:
.LFB14762:
	pushq	%rbp
	.seh_pushreg	%rbp
	movq	%rsp, %rbp
	.seh_setframe	%rbp, 0
	.seh_endprologue
	movl	%ecx, 16(%rbp)
	movl	16(%rbp), %eax
	cmpl	$6, %eax
	ja	.L206
	movl	%eax, %eax
	leaq	0(,%rax,4), %rdx
	leaq	.L208(%rip), %rax
	movl	(%rdx,%rax), %eax
	cltq
	leaq	.L208(%rip), %rdx
	addq	%rdx, %rax
	jmp	*%rax
	.section .rdata,"dr"
	.align 4
.L208:
	.long	.L206-.L208
	.long	.L213-.L208
	.long	.L212-.L208
	.long	.L211-.L208
	.long	.L210-.L208
	.long	.L209-.L208
	.long	.L207-.L208
	.section	.text$_ZN4plog16severityToStringENS_8SeverityE,"x"
	.linkonce discard
.L213:
	leaq	.LC5(%rip), %rax
	jmp	.L214
.L212:
	leaq	.LC6(%rip), %rax
	jmp	.L214
.L211:
	leaq	.LC7(%rip), %rax
	jmp	.L214
.L210:
	leaq	.LC8(%rip), %rax
	jmp	.L214
.L209:
	leaq	.LC9(%rip), %rax
	jmp	.L214
.L207:
	leaq	.LC10(%rip), %rax
	jmp	.L214
.L206:
	leaq	.LC11(%rip), %rax
.L214:
	popq	%rbp
	ret
	.seh_endproc
	.section .rdata,"dr"
	.align 4
_ZN4plog8codePageL7kActiveE:
	.space 4
	.align 4
_ZN4plog8codePageL5kUTF8E:
	.long	65001
	.align 2
_ZN4plog8eventLogL10kErrorTypeE:
	.word	1
	.align 2
_ZN4plog8eventLogL12kWarningTypeE:
	.word	2
	.align 2
_ZN4plog8eventLogL16kInformationTypeE:
	.word	4
	.align 8
_ZN4plog4hkeyL13kLocalMachineE:
	.quad	2147483650
	.align 4
_ZN4plog6regSamL11kQueryValueE:
	.long	1
	.align 4
_ZN4plog6regSamL9kSetValueE:
	.long	2
	.align 4
_ZN4plog7regTypeL9kExpandSzE:
	.long	2
	.align 4
_ZN4plog7regTypeL6kDwordE:
	.long	4
	.align 4
_ZN4plog9stdHandleL7kOutputE:
	.long	-11
	.align 4
_ZN4plog9stdHandleL12kErrorOutputE:
	.long	-12
	.align 2
_ZN4plog10foregroundL5kBlueE:
	.word	1
	.align 2
_ZN4plog10foregroundL6kGreenE:
	.word	2
	.align 2
_ZN4plog10foregroundL4kRedE:
	.word	4
	.align 2
_ZN4plog10foregroundL10kIntensityE:
	.word	8
	.align 2
_ZN4plog10backgroundL5kBlueE:
	.word	16
	.align 2
_ZN4plog10backgroundL6kGreenE:
	.word	32
	.align 2
_ZN4plog10backgroundL4kRedE:
	.word	64
	.align 2
_ZN4plog10backgroundL10kIntensityE:
	.word	128
	.section	.text$_ZN4plog25InitializeCriticalSectionEPNS_16CRITICAL_SECTIONE,"x"
	.linkonce discard
	.globl	_ZN4plog25InitializeCriticalSectionEPNS_16CRITICAL_SECTIONE
	.def	_ZN4plog25InitializeCriticalSectionEPNS_16CRITICAL_SECTIONE;	.scl	2;	.type	32;	.endef
	.seh_proc	_ZN4plog25InitializeCriticalSectionEPNS_16CRITICAL_SECTIONE
_ZN4plog25InitializeCriticalSectionEPNS_16CRITICAL_SECTIONE:
.LFB14764:
	pushq	%rbp
	.seh_pushreg	%rbp
	movq	%rsp, %rbp
	.seh_setframe	%rbp, 0
	subq	$32, %rsp
	.seh_stackalloc	32
	.seh_endprologue
	movq	%rcx, 16(%rbp)
	movq	16(%rbp), %rcx
	movq	__imp_InitializeCriticalSection(%rip), %rax
	call	*%rax
	nop
	addq	$32, %rsp
	popq	%rbp
	ret
	.seh_endproc
	.section	.text$_ZN4plog20EnterCriticalSectionEPNS_16CRITICAL_SECTIONE,"x"
	.linkonce discard
	.globl	_ZN4plog20EnterCriticalSectionEPNS_16CRITICAL_SECTIONE
	.def	_ZN4plog20EnterCriticalSectionEPNS_16CRITICAL_SECTIONE;	.scl	2;	.type	32;	.endef
	.seh_proc	_ZN4plog20EnterCriticalSectionEPNS_16CRITICAL_SECTIONE
_ZN4plog20EnterCriticalSectionEPNS_16CRITICAL_SECTIONE:
.LFB14765:
	pushq	%rbp
	.seh_pushreg	%rbp
	movq	%rsp, %rbp
	.seh_setframe	%rbp, 0
	subq	$32, %rsp
	.seh_stackalloc	32
	.seh_endprologue
	movq	%rcx, 16(%rbp)
	movq	16(%rbp), %rcx
	movq	__imp_EnterCriticalSection(%rip), %rax
	call	*%rax
	nop
	addq	$32, %rsp
	popq	%rbp
	ret
	.seh_endproc
	.section	.text$_ZN4plog20LeaveCriticalSectionEPNS_16CRITICAL_SECTIONE,"x"
	.linkonce discard
	.globl	_ZN4plog20LeaveCriticalSectionEPNS_16CRITICAL_SECTIONE
	.def	_ZN4plog20LeaveCriticalSectionEPNS_16CRITICAL_SECTIONE;	.scl	2;	.type	32;	.endef
	.seh_proc	_ZN4plog20LeaveCriticalSectionEPNS_16CRITICAL_SECTIONE
_ZN4plog20LeaveCriticalSectionEPNS_16CRITICAL_SECTIONE:
.LFB14766:
	pushq	%rbp
	.seh_pushreg	%rbp
	movq	%rsp, %rbp
	.seh_setframe	%rbp, 0
	subq	$32, %rsp
	.seh_stackalloc	32
	.seh_endprologue
	movq	%rcx, 16(%rbp)
	movq	16(%rbp), %rcx
	movq	__imp_LeaveCriticalSection(%rip), %rax
	call	*%rax
	nop
	addq	$32, %rsp
	popq	%rbp
	ret
	.seh_endproc
	.section	.text$_ZN4plog21DeleteCriticalSectionEPNS_16CRITICAL_SECTIONE,"x"
	.linkonce discard
	.globl	_ZN4plog21DeleteCriticalSectionEPNS_16CRITICAL_SECTIONE
	.def	_ZN4plog21DeleteCriticalSectionEPNS_16CRITICAL_SECTIONE;	.scl	2;	.type	32;	.endef
	.seh_proc	_ZN4plog21DeleteCriticalSectionEPNS_16CRITICAL_SECTIONE
_ZN4plog21DeleteCriticalSectionEPNS_16CRITICAL_SECTIONE:
.LFB14767:
	pushq	%rbp
	.seh_pushreg	%rbp
	movq	%rsp, %rbp
	.seh_setframe	%rbp, 0
	subq	$32, %rsp
	.seh_stackalloc	32
	.seh_endprologue
	movq	%rcx, 16(%rbp)
	movq	16(%rbp), %rcx
	movq	__imp_DeleteCriticalSection(%rip), %rax
	call	*%rax
	nop
	addq	$32, %rsp
	popq	%rbp
	ret
	.seh_endproc
	.section	.text$_ZN4plog4util11localtime_sEP2tmPKx,"x"
	.linkonce discard
	.globl	_ZN4plog4util11localtime_sEP2tmPKx
	.def	_ZN4plog4util11localtime_sEP2tmPKx;	.scl	2;	.type	32;	.endef
	.seh_proc	_ZN4plog4util11localtime_sEP2tmPKx
_ZN4plog4util11localtime_sEP2tmPKx:
.LFB14769:
	pushq	%rbp
	.seh_pushreg	%rbp
	movq	%rsp, %rbp
	.seh_setframe	%rbp, 0
	subq	$32, %rsp
	.seh_stackalloc	32
	.seh_endprologue
	movq	%rcx, 16(%rbp)
	movq	%rdx, 24(%rbp)
	movq	24(%rbp), %rax
	movq	%rax, %rdx
	movq	16(%rbp), %rcx
	call	localtime_s
	nop
	addq	$32, %rsp
	popq	%rbp
	ret
	.seh_endproc
	.section	.text$_ZN4plog4util5ftimeEP5timeb,"x"
	.linkonce discard
	.globl	_ZN4plog4util5ftimeEP5timeb
	.def	_ZN4plog4util5ftimeEP5timeb;	.scl	2;	.type	32;	.endef
	.seh_proc	_ZN4plog4util5ftimeEP5timeb
_ZN4plog4util5ftimeEP5timeb:
.LFB14771:
	pushq	%rbp
	.seh_pushreg	%rbp
	movq	%rsp, %rbp
	.seh_setframe	%rbp, 0
	subq	$32, %rsp
	.seh_stackalloc	32
	.seh_endprologue
	movq	%rcx, 16(%rbp)
	movq	16(%rbp), %rcx
	call	ftime
	nop
	addq	$32, %rsp
	popq	%rbp
	ret
	.seh_endproc
	.section	.text$_ZN4plog4util6gettidEv,"x"
	.linkonce discard
	.globl	_ZN4plog4util6gettidEv
	.def	_ZN4plog4util6gettidEv;	.scl	2;	.type	32;	.endef
	.seh_proc	_ZN4plog4util6gettidEv
_ZN4plog4util6gettidEv:
.LFB14772:
	pushq	%rbp
	.seh_pushreg	%rbp
	movq	%rsp, %rbp
	.seh_setframe	%rbp, 0
	subq	$32, %rsp
	.seh_stackalloc	32
	.seh_endprologue
	movq	__imp_GetCurrentThreadId(%rip), %rax
	call	*%rax
	addq	$32, %rsp
	popq	%rbp
	ret
	.seh_endproc
	.section	.text$_ZN4plog4util6toWideB5cxx11EPKc,"x"
	.linkonce discard
	.globl	_ZN4plog4util6toWideB5cxx11EPKc
	.def	_ZN4plog4util6toWideB5cxx11EPKc;	.scl	2;	.type	32;	.endef
	.seh_proc	_ZN4plog4util6toWideB5cxx11EPKc
_ZN4plog4util6toWideB5cxx11EPKc:
.LFB14775:
	pushq	%rbp
	.seh_pushreg	%rbp
	pushq	%rbx
	.seh_pushreg	%rbx
	subq	$72, %rsp
	.seh_stackalloc	72
	leaq	128(%rsp), %rbp
	.seh_setframe	%rbp, 128
	.seh_endprologue
	movq	%rcx, -32(%rbp)
	movq	%rdx, -24(%rbp)
	movq	-24(%rbp), %rax
	movq	%rax, %rcx
	call	strlen
	movq	%rax, -72(%rbp)
	leaq	-77(%rbp), %rax
	movq	%rax, %rcx
	call	_ZNSaIwEC1Ev
	leaq	-77(%rbp), %rdx
	movq	-72(%rbp), %rax
	movq	%rdx, %r9
	movl	$0, %r8d
	movq	%rax, %rdx
	movq	-32(%rbp), %rcx
.LEHB18:
	call	_ZNSt7__cxx1112basic_stringIwSt11char_traitsIwESaIwEEC1EywRKS3_
.LEHE18:
	leaq	-77(%rbp), %rax
	movq	%rax, %rcx
	call	_ZNSaIwED1Ev
	movq	-32(%rbp), %rcx
	call	_ZNKSt7__cxx1112basic_stringIwSt11char_traitsIwESaIwEE5emptyEv
	xorl	$1, %eax
	testb	%al, %al
	je	.L230
	movq	-32(%rbp), %rcx
	call	_ZNKSt7__cxx1112basic_stringIwSt11char_traitsIwESaIwEE4sizeEv
	movl	%eax, %ebx
	movl	$0, %edx
	movq	-32(%rbp), %rcx
.LEHB19:
	call	_ZNSt7__cxx1112basic_stringIwSt11char_traitsIwESaIwEEixEy
	movq	-72(%rbp), %rdx
	movl	%edx, %ecx
	movq	-24(%rbp), %rdx
	movl	%ebx, 40(%rsp)
	movq	%rax, 32(%rsp)
	movl	%ecx, %r9d
	movq	%rdx, %r8
	movl	$0, %edx
	movl	$0, %ecx
	movq	__imp_MultiByteToWideChar(%rip), %rax
	call	*%rax
	movl	%eax, -76(%rbp)
	movl	-76(%rbp), %eax
	cltq
	movq	%rax, %rdx
	movq	-32(%rbp), %rcx
	call	_ZNSt7__cxx1112basic_stringIwSt11char_traitsIwESaIwEE6resizeEy
.LEHE19:
	jmp	.L230
.L228:
	movq	%rax, %rbx
	leaq	-77(%rbp), %rax
	movq	%rax, %rcx
	call	_ZNSaIwED1Ev
	movq	%rbx, %rax
	movq	%rax, %rcx
.LEHB20:
	call	_Unwind_Resume
.L229:
	movq	%rax, %rbx
	movq	-32(%rbp), %rcx
	call	_ZNSt7__cxx1112basic_stringIwSt11char_traitsIwESaIwEED1Ev
	movq	%rbx, %rax
	movq	%rax, %rcx
	call	_Unwind_Resume
.LEHE20:
.L230:
	nop
	movq	-32(%rbp), %rax
	addq	$72, %rsp
	popq	%rbx
	popq	%rbp
	ret
	.seh_handler	__gxx_personality_seh0, @unwind, @except
	.seh_handlerdata
.LLSDA14775:
	.byte	0xff
	.byte	0xff
	.byte	0x1
	.uleb128 .LLSDACSE14775-.LLSDACSB14775
.LLSDACSB14775:
	.uleb128 .LEHB18-.LFB14775
	.uleb128 .LEHE18-.LEHB18
	.uleb128 .L228-.LFB14775
	.uleb128 0
	.uleb128 .LEHB19-.LFB14775
	.uleb128 .LEHE19-.LEHB19
	.uleb128 .L229-.LFB14775
	.uleb128 0
	.uleb128 .LEHB20-.LFB14775
	.uleb128 .LEHE20-.LEHB20
	.uleb128 0
	.uleb128 0
.LLSDACSE14775:
	.section	.text$_ZN4plog4util6toWideB5cxx11EPKc,"x"
	.linkonce discard
	.seh_endproc
	.section	.text$_ZN4plog4util8toNarrowERKNSt7__cxx1112basic_stringIwSt11char_traitsIwESaIwEEEl,"x"
	.linkonce discard
	.globl	_ZN4plog4util8toNarrowERKNSt7__cxx1112basic_stringIwSt11char_traitsIwESaIwEEEl
	.def	_ZN4plog4util8toNarrowERKNSt7__cxx1112basic_stringIwSt11char_traitsIwESaIwEEEl;	.scl	2;	.type	32;	.endef
	.seh_proc	_ZN4plog4util8toNarrowERKNSt7__cxx1112basic_stringIwSt11char_traitsIwESaIwEEEl
_ZN4plog4util8toNarrowERKNSt7__cxx1112basic_stringIwSt11char_traitsIwESaIwEEEl:
.LFB14776:
	pushq	%rbp
	.seh_pushreg	%rbp
	pushq	%rdi
	.seh_pushreg	%rdi
	pushq	%rsi
	.seh_pushreg	%rsi
	pushq	%rbx
	.seh_pushreg	%rbx
	subq	$88, %rsp
	.seh_stackalloc	88
	leaq	128(%rsp), %rbp
	.seh_setframe	%rbp, 128
	.seh_endprologue
	movq	%rcx, 0(%rbp)
	movq	%rdx, 8(%rbp)
	movl	%r8d, 16(%rbp)
	leaq	-53(%rbp), %rax
	movq	%rax, %rcx
	call	_ZNSaIcEC1Ev
	movq	8(%rbp), %rax
	movq	%rax, %rcx
	call	_ZNKSt7__cxx1112basic_stringIwSt11char_traitsIwESaIwEE4sizeEv
	addq	%rax, %rax
	leaq	-53(%rbp), %rdx
	movq	%rdx, %r9
	movl	$0, %r8d
	movq	%rax, %rdx
	movq	0(%rbp), %rcx
.LEHB21:
	call	_ZNSt7__cxx1112basic_stringIcSt11char_traitsIcESaIcEEC1EycRKS3_
.LEHE21:
	leaq	-53(%rbp), %rax
	movq	%rax, %rcx
	call	_ZNSaIcED1Ev
	movq	0(%rbp), %rcx
	call	_ZNKSt7__cxx1112basic_stringIcSt11char_traitsIcESaIcEE5emptyEv
	xorl	$1, %eax
	testb	%al, %al
	je	.L238
	movq	0(%rbp), %rcx
	call	_ZNKSt7__cxx1112basic_stringIcSt11char_traitsIcESaIcEE4sizeEv
	movl	%eax, %esi
	movl	$0, %edx
	movq	0(%rbp), %rcx
.LEHB22:
	call	_ZNSt7__cxx1112basic_stringIcSt11char_traitsIcESaIcEEixEy
	movq	%rax, %rbx
	movq	8(%rbp), %rax
	movq	%rax, %rcx
	call	_ZNKSt7__cxx1112basic_stringIwSt11char_traitsIwESaIwEE4sizeEv
	movl	%eax, %edi
	movq	8(%rbp), %rax
	movq	%rax, %rcx
	call	_ZNKSt7__cxx1112basic_stringIwSt11char_traitsIwESaIwEE5c_strEv
	movq	%rax, %rdx
	movl	16(%rbp), %eax
	movq	$0, 56(%rsp)
	movq	$0, 48(%rsp)
	movl	%esi, 40(%rsp)
	movq	%rbx, 32(%rsp)
	movl	%edi, %r9d
	movq	%rdx, %r8
	movl	$0, %edx
	movl	%eax, %ecx
	movq	__imp_WideCharToMultiByte(%rip), %rax
	call	*%rax
	movl	%eax, -52(%rbp)
	movl	-52(%rbp), %eax
	cltq
	movq	%rax, %rdx
	movq	0(%rbp), %rcx
	call	_ZNSt7__cxx1112basic_stringIcSt11char_traitsIcESaIcEE6resizeEy
.LEHE22:
	jmp	.L238
.L236:
	movq	%rax, %rbx
	leaq	-53(%rbp), %rax
	movq	%rax, %rcx
	call	_ZNSaIcED1Ev
	movq	%rbx, %rax
	movq	%rax, %rcx
.LEHB23:
	call	_Unwind_Resume
.L237:
	movq	%rax, %rbx
	movq	0(%rbp), %rcx
	call	_ZNSt7__cxx1112basic_stringIcSt11char_traitsIcESaIcEED1Ev
	movq	%rbx, %rax
	movq	%rax, %rcx
	call	_Unwind_Resume
.LEHE23:
.L238:
	nop
	movq	0(%rbp), %rax
	addq	$88, %rsp
	popq	%rbx
	popq	%rsi
	popq	%rdi
	popq	%rbp
	ret
	.seh_handler	__gxx_personality_seh0, @unwind, @except
	.seh_handlerdata
.LLSDA14776:
	.byte	0xff
	.byte	0xff
	.byte	0x1
	.uleb128 .LLSDACSE14776-.LLSDACSB14776
.LLSDACSB14776:
	.uleb128 .LEHB21-.LFB14776
	.uleb128 .LEHE21-.LEHB21
	.uleb128 .L236-.LFB14776
	.uleb128 0
	.uleb128 .LEHB22-.LFB14776
	.uleb128 .LEHE22-.LEHB22
	.uleb128 .L237-.LFB14776
	.uleb128 0
	.uleb128 .LEHB23-.LFB14776
	.uleb128 .LEHE23-.LEHB23
	.uleb128 0
	.uleb128 0
.LLSDACSE14776:
	.section	.text$_ZN4plog4util8toNarrowERKNSt7__cxx1112basic_stringIwSt11char_traitsIwESaIwEEEl,"x"
	.linkonce discard
	.seh_endproc
	.section	.text$_ZN4plog4util15processFuncNameB5cxx11EPKc,"x"
	.linkonce discard
	.globl	_ZN4plog4util15processFuncNameB5cxx11EPKc
	.def	_ZN4plog4util15processFuncNameB5cxx11EPKc;	.scl	2;	.type	32;	.endef
	.seh_proc	_ZN4plog4util15processFuncNameB5cxx11EPKc
_ZN4plog4util15processFuncNameB5cxx11EPKc:
.LFB14777:
	pushq	%rbp
	.seh_pushreg	%rbp
	pushq	%rbx
	.seh_pushreg	%rbx
	subq	$72, %rsp
	.seh_stackalloc	72
	leaq	128(%rsp), %rbp
	.seh_setframe	%rbp, 128
	.seh_endprologue
	movq	%rcx, -32(%rbp)
	movq	%rdx, -24(%rbp)
	movq	-24(%rbp), %rax
	movq	%rax, -72(%rbp)
	movq	-72(%rbp), %rax
	movl	$40, %edx
	movq	%rax, %rcx
	call	strchr
	movq	%rax, -88(%rbp)
	cmpq	$0, -88(%rbp)
	jne	.L240
	leaq	-90(%rbp), %rax
	movq	%rax, %rcx
	call	_ZNSaIcEC1Ev
	leaq	-90(%rbp), %rdx
	movq	-24(%rbp), %rax
	movq	%rdx, %r8
	movq	%rax, %rdx
	movq	-32(%rbp), %rcx
.LEHB24:
	call	_ZNSt7__cxx1112basic_stringIcSt11char_traitsIcESaIcEEC1EPKcRKS3_
.LEHE24:
	nop
	leaq	-90(%rbp), %rax
	movq	%rax, %rcx
	call	_ZNSaIcED1Ev
	jmp	.L239
.L240:
	movq	-88(%rbp), %rax
	subq	$1, %rax
	movq	%rax, -80(%rbp)
.L244:
	movq	-80(%rbp), %rax
	cmpq	-72(%rbp), %rax
	jb	.L242
	movq	-80(%rbp), %rax
	movzbl	(%rax), %eax
	cmpb	$32, %al
	jne	.L243
	movq	-80(%rbp), %rax
	addq	$1, %rax
	movq	%rax, -72(%rbp)
	jmp	.L242
.L243:
	subq	$1, -80(%rbp)
	jmp	.L244
.L242:
	leaq	-89(%rbp), %rax
	movq	%rax, %rcx
	call	_ZNSaIcEC1Ev
	leaq	-89(%rbp), %rcx
	movq	-88(%rbp), %rdx
	movq	-72(%rbp), %rax
	movq	%rcx, %r9
	movq	%rdx, %r8
	movq	%rax, %rdx
	movq	-32(%rbp), %rcx
.LEHB25:
	call	_ZNSt7__cxx1112basic_stringIcSt11char_traitsIcESaIcEEC1IPKcvEET_S8_RKS3_
.LEHE25:
	nop
	leaq	-89(%rbp), %rax
	movq	%rax, %rcx
	call	_ZNSaIcED1Ev
	jmp	.L239
.L247:
	movq	%rax, %rbx
	leaq	-90(%rbp), %rax
	movq	%rax, %rcx
	call	_ZNSaIcED1Ev
	movq	%rbx, %rax
	movq	%rax, %rcx
.LEHB26:
	call	_Unwind_Resume
.L248:
	movq	%rax, %rbx
	leaq	-89(%rbp), %rax
	movq	%rax, %rcx
	call	_ZNSaIcED1Ev
	movq	%rbx, %rax
	movq	%rax, %rcx
	call	_Unwind_Resume
.LEHE26:
.L239:
	movq	-32(%rbp), %rax
	addq	$72, %rsp
	popq	%rbx
	popq	%rbp
	ret
	.seh_handler	__gxx_personality_seh0, @unwind, @except
	.seh_handlerdata
.LLSDA14777:
	.byte	0xff
	.byte	0xff
	.byte	0x1
	.uleb128 .LLSDACSE14777-.LLSDACSB14777
.LLSDACSB14777:
	.uleb128 .LEHB24-.LFB14777
	.uleb128 .LEHE24-.LEHB24
	.uleb128 .L247-.LFB14777
	.uleb128 0
	.uleb128 .LEHB25-.LFB14777
	.uleb128 .LEHE25-.LEHB25
	.uleb128 .L248-.LFB14777
	.uleb128 0
	.uleb128 .LEHB26-.LFB14777
	.uleb128 .LEHE26-.LEHB26
	.uleb128 0
	.uleb128 0
.LLSDACSE14777:
	.section	.text$_ZN4plog4util15processFuncNameB5cxx11EPKc,"x"
	.linkonce discard
	.seh_endproc
	.section	.text$_ZN4plog4util16findExtensionDotEPKw,"x"
	.linkonce discard
	.globl	_ZN4plog4util16findExtensionDotEPKw
	.def	_ZN4plog4util16findExtensionDotEPKw;	.scl	2;	.type	32;	.endef
	.seh_proc	_ZN4plog4util16findExtensionDotEPKw
_ZN4plog4util16findExtensionDotEPKw:
.LFB14778:
	pushq	%rbp
	.seh_pushreg	%rbp
	movq	%rsp, %rbp
	.seh_setframe	%rbp, 0
	subq	$32, %rsp
	.seh_stackalloc	32
	.seh_endprologue
	movq	%rcx, 16(%rbp)
	movl	$46, %edx
	movq	16(%rbp), %rcx
	call	wcsrchr
	addq	$32, %rsp
	popq	%rbp
	ret
	.seh_endproc
	.section	.text$_ZN4plog4util13splitFileNameEPKwRNSt7__cxx1112basic_stringIwSt11char_traitsIwESaIwEEES9_,"x"
	.linkonce discard
	.globl	_ZN4plog4util13splitFileNameEPKwRNSt7__cxx1112basic_stringIwSt11char_traitsIwESaIwEEES9_
	.def	_ZN4plog4util13splitFileNameEPKwRNSt7__cxx1112basic_stringIwSt11char_traitsIwESaIwEEES9_;	.scl	2;	.type	32;	.endef
	.seh_proc	_ZN4plog4util13splitFileNameEPKwRNSt7__cxx1112basic_stringIwSt11char_traitsIwESaIwEEES9_
_ZN4plog4util13splitFileNameEPKwRNSt7__cxx1112basic_stringIwSt11char_traitsIwESaIwEEES9_:
.LFB14779:
	pushq	%rbp
	.seh_pushreg	%rbp
	movq	%rsp, %rbp
	.seh_setframe	%rbp, 0
	subq	$48, %rsp
	.seh_stackalloc	48
	.seh_endprologue
	movq	%rcx, 16(%rbp)
	movq	%rdx, 24(%rbp)
	movq	%r8, 32(%rbp)
	movq	16(%rbp), %rcx
	call	_ZN4plog4util16findExtensionDotEPKw
	movq	%rax, -8(%rbp)
	cmpq	$0, -8(%rbp)
	je	.L252
	movq	-8(%rbp), %rdx
	movq	24(%rbp), %rax
	movq	%rdx, %r8
	movq	16(%rbp), %rdx
	movq	%rax, %rcx
	call	_ZNSt7__cxx1112basic_stringIwSt11char_traitsIwESaIwEE6assignIPKwvEERS4_T_S9_
	movq	-8(%rbp), %rax
	leaq	2(%rax), %rdx
	movq	32(%rbp), %rax
	movq	%rax, %rcx
	call	_ZNSt7__cxx1112basic_stringIwSt11char_traitsIwESaIwEE6assignEPKw
	jmp	.L254
.L252:
	movq	24(%rbp), %rax
	movq	16(%rbp), %rdx
	movq	%rax, %rcx
	call	_ZNSt7__cxx1112basic_stringIwSt11char_traitsIwESaIwEE6assignEPKw
	movq	32(%rbp), %rax
	movq	%rax, %rcx
	call	_ZNSt7__cxx1112basic_stringIwSt11char_traitsIwESaIwEE5clearEv
.L254:
	nop
	addq	$48, %rsp
	popq	%rbp
	ret
	.seh_endproc
	.section	.text$_ZN4plog4util11NonCopyableC2Ev,"x"
	.linkonce discard
	.align 2
	.globl	_ZN4plog4util11NonCopyableC2Ev
	.def	_ZN4plog4util11NonCopyableC2Ev;	.scl	2;	.type	32;	.endef
	.seh_proc	_ZN4plog4util11NonCopyableC2Ev
_ZN4plog4util11NonCopyableC2Ev:
.LFB14781:
	pushq	%rbp
	.seh_pushreg	%rbp
	movq	%rsp, %rbp
	.seh_setframe	%rbp, 0
	.seh_endprologue
	movq	%rcx, 16(%rbp)
	nop
	popq	%rbp
	ret
	.seh_endproc
	.section	.text$_ZN4plog4util4FileC1Ev,"x"
	.linkonce discard
	.align 2
	.globl	_ZN4plog4util4FileC1Ev
	.def	_ZN4plog4util4FileC1Ev;	.scl	2;	.type	32;	.endef
	.seh_proc	_ZN4plog4util4FileC1Ev
_ZN4plog4util4FileC1Ev:
.LFB14785:
	pushq	%rbp
	.seh_pushreg	%rbp
	movq	%rsp, %rbp
	.seh_setframe	%rbp, 0
	subq	$32, %rsp
	.seh_stackalloc	32
	.seh_endprologue
	movq	%rcx, 16(%rbp)
	movq	16(%rbp), %rcx
	call	_ZN4plog4util11NonCopyableC2Ev
	movq	16(%rbp), %rax
	movl	$-1, (%rax)
	nop
	addq	$32, %rsp
	popq	%rbp
	ret
	.seh_endproc
	.section	.text$_ZN4plog4util4FileD1Ev,"x"
	.linkonce discard
	.align 2
	.globl	_ZN4plog4util4FileD1Ev
	.def	_ZN4plog4util4FileD1Ev;	.scl	2;	.type	32;	.endef
	.seh_proc	_ZN4plog4util4FileD1Ev
_ZN4plog4util4FileD1Ev:
.LFB14791:
	pushq	%rbp
	.seh_pushreg	%rbp
	movq	%rsp, %rbp
	.seh_setframe	%rbp, 0
	subq	$32, %rsp
	.seh_stackalloc	32
	.seh_endprologue
	movq	%rcx, 16(%rbp)
	movq	16(%rbp), %rcx
	call	_ZN4plog4util4File5closeEv
	nop
	addq	$32, %rsp
	popq	%rbp
	ret
	.seh_handler	__gxx_personality_seh0, @unwind, @except
	.seh_handlerdata
.LLSDA14791:
	.byte	0xff
	.byte	0xff
	.byte	0x1
	.uleb128 .LLSDACSE14791-.LLSDACSB14791
.LLSDACSB14791:
.LLSDACSE14791:
	.section	.text$_ZN4plog4util4FileD1Ev,"x"
	.linkonce discard
	.seh_endproc
	.section	.text$_ZN4plog4util4File4openEPKw,"x"
	.linkonce discard
	.align 2
	.globl	_ZN4plog4util4File4openEPKw
	.def	_ZN4plog4util4File4openEPKw;	.scl	2;	.type	32;	.endef
	.seh_proc	_ZN4plog4util4File4openEPKw
_ZN4plog4util4File4openEPKw:
.LFB14792:
	pushq	%rbp
	.seh_pushreg	%rbp
	movq	%rsp, %rbp
	.seh_setframe	%rbp, 0
	subq	$32, %rsp
	.seh_stackalloc	32
	.seh_endprologue
	movq	%rcx, 16(%rbp)
	movq	%rdx, 24(%rbp)
	movq	24(%rbp), %rax
	movl	$384, %r9d
	movl	$32, %r8d
	movl	$33153, %edx
	movq	%rax, %rcx
	movq	__imp__wsopen(%rip), %rax
	call	*%rax
	movq	16(%rbp), %rdx
	movl	%eax, (%rdx)
	movl	$2, %r8d
	movl	$0, %edx
	movq	16(%rbp), %rcx
	call	_ZN4plog4util4File4seekEyi
	addq	$32, %rsp
	popq	%rbp
	ret
	.seh_endproc
	.section	.text$_ZN4plog4util4File5writeEPKvy,"x"
	.linkonce discard
	.align 2
	.globl	_ZN4plog4util4File5writeEPKvy
	.def	_ZN4plog4util4File5writeEPKvy;	.scl	2;	.type	32;	.endef
	.seh_proc	_ZN4plog4util4File5writeEPKvy
_ZN4plog4util4File5writeEPKvy:
.LFB14793:
	pushq	%rbp
	.seh_pushreg	%rbp
	movq	%rsp, %rbp
	.seh_setframe	%rbp, 0
	subq	$32, %rsp
	.seh_stackalloc	32
	.seh_endprologue
	movq	%rcx, 16(%rbp)
	movq	%rdx, 24(%rbp)
	movq	%r8, 32(%rbp)
	movq	16(%rbp), %rax
	movl	(%rax), %eax
	cmpl	$-1, %eax
	je	.L261
	movq	32(%rbp), %rax
	movl	%eax, %ecx
	movq	16(%rbp), %rax
	movl	(%rax), %eax
	movq	24(%rbp), %rdx
	movl	%ecx, %r8d
	movl	%eax, %ecx
	movq	__imp__write(%rip), %rax
	call	*%rax
	cltq
	jmp	.L263
.L261:
	movq	$-1, %rax
.L263:
	addq	$32, %rsp
	popq	%rbp
	ret
	.seh_endproc
	.section	.text$_ZN4plog4util4File4seekEyi,"x"
	.linkonce discard
	.align 2
	.globl	_ZN4plog4util4File4seekEyi
	.def	_ZN4plog4util4File4seekEyi;	.scl	2;	.type	32;	.endef
	.seh_proc	_ZN4plog4util4File4seekEyi
_ZN4plog4util4File4seekEyi:
.LFB14795:
	pushq	%rbp
	.seh_pushreg	%rbp
	movq	%rsp, %rbp
	.seh_setframe	%rbp, 0
	subq	$32, %rsp
	.seh_stackalloc	32
	.seh_endprologue
	movq	%rcx, 16(%rbp)
	movq	%rdx, 24(%rbp)
	movl	%r8d, 32(%rbp)
	movq	16(%rbp), %rax
	movl	(%rax), %eax
	cmpl	$-1, %eax
	je	.L265
	movq	24(%rbp), %rax
	movl	%eax, %ecx
	movq	16(%rbp), %rax
	movl	(%rax), %eax
	movl	32(%rbp), %edx
	movl	%edx, %r8d
	movl	%ecx, %edx
	movl	%eax, %ecx
	movq	__imp__lseek(%rip), %rax
	call	*%rax
	cltq
	jmp	.L267
.L265:
	movq	$-1, %rax
.L267:
	addq	$32, %rsp
	popq	%rbp
	ret
	.seh_endproc
	.section	.text$_ZN4plog4util4File5closeEv,"x"
	.linkonce discard
	.align 2
	.globl	_ZN4plog4util4File5closeEv
	.def	_ZN4plog4util4File5closeEv;	.scl	2;	.type	32;	.endef
	.seh_proc	_ZN4plog4util4File5closeEv
_ZN4plog4util4File5closeEv:
.LFB14796:
	pushq	%rbp
	.seh_pushreg	%rbp
	movq	%rsp, %rbp
	.seh_setframe	%rbp, 0
	subq	$32, %rsp
	.seh_stackalloc	32
	.seh_endprologue
	movq	%rcx, 16(%rbp)
	movq	16(%rbp), %rax
	movl	(%rax), %eax
	cmpl	$-1, %eax
	je	.L270
	movq	16(%rbp), %rax
	movl	(%rax), %eax
	movl	%eax, %ecx
	movq	__imp__close(%rip), %rax
	call	*%rax
	movq	16(%rbp), %rax
	movl	$-1, (%rax)
.L270:
	nop
	addq	$32, %rsp
	popq	%rbp
	ret
	.seh_endproc
	.section	.text$_ZN4plog4util4File6unlinkEPKw,"x"
	.linkonce discard
	.globl	_ZN4plog4util4File6unlinkEPKw
	.def	_ZN4plog4util4File6unlinkEPKw;	.scl	2;	.type	32;	.endef
	.seh_proc	_ZN4plog4util4File6unlinkEPKw
_ZN4plog4util4File6unlinkEPKw:
.LFB14797:
	pushq	%rbp
	.seh_pushreg	%rbp
	movq	%rsp, %rbp
	.seh_setframe	%rbp, 0
	subq	$32, %rsp
	.seh_stackalloc	32
	.seh_endprologue
	movq	%rcx, 16(%rbp)
	movq	16(%rbp), %rcx
	movq	__imp__wunlink(%rip), %rax
	call	*%rax
	addq	$32, %rsp
	popq	%rbp
	ret
	.seh_endproc
	.section	.text$_ZN4plog4util4File6renameEPKwS3_,"x"
	.linkonce discard
	.globl	_ZN4plog4util4File6renameEPKwS3_
	.def	_ZN4plog4util4File6renameEPKwS3_;	.scl	2;	.type	32;	.endef
	.seh_proc	_ZN4plog4util4File6renameEPKwS3_
_ZN4plog4util4File6renameEPKwS3_:
.LFB14798:
	pushq	%rbp
	.seh_pushreg	%rbp
	movq	%rsp, %rbp
	.seh_setframe	%rbp, 0
	subq	$32, %rsp
	.seh_stackalloc	32
	.seh_endprologue
	movq	%rcx, 16(%rbp)
	movq	%rdx, 24(%rbp)
	movq	24(%rbp), %rax
	movq	%rax, %rdx
	movq	16(%rbp), %rcx
	movq	__imp_MoveFileW(%rip), %rax
	call	*%rax
	addq	$32, %rsp
	popq	%rbp
	ret
	.seh_endproc
	.section	.text$_ZN4plog4util5MutexC1Ev,"x"
	.linkonce discard
	.align 2
	.globl	_ZN4plog4util5MutexC1Ev
	.def	_ZN4plog4util5MutexC1Ev;	.scl	2;	.type	32;	.endef
	.seh_proc	_ZN4plog4util5MutexC1Ev
_ZN4plog4util5MutexC1Ev:
.LFB14801:
	pushq	%rbp
	.seh_pushreg	%rbp
	movq	%rsp, %rbp
	.seh_setframe	%rbp, 0
	subq	$32, %rsp
	.seh_stackalloc	32
	.seh_endprologue
	movq	%rcx, 16(%rbp)
	movq	16(%rbp), %rcx
	call	_ZN4plog4util11NonCopyableC2Ev
	movq	16(%rbp), %rax
	movq	%rax, %rcx
	call	_ZN4plog25InitializeCriticalSectionEPNS_16CRITICAL_SECTIONE
	nop
	addq	$32, %rsp
	popq	%rbp
	ret
	.seh_endproc
	.section	.text$_ZN4plog4util5MutexD1Ev,"x"
	.linkonce discard
	.align 2
	.globl	_ZN4plog4util5MutexD1Ev
	.def	_ZN4plog4util5MutexD1Ev;	.scl	2;	.type	32;	.endef
	.seh_proc	_ZN4plog4util5MutexD1Ev
_ZN4plog4util5MutexD1Ev:
.LFB14804:
	pushq	%rbp
	.seh_pushreg	%rbp
	movq	%rsp, %rbp
	.seh_setframe	%rbp, 0
	subq	$32, %rsp
	.seh_stackalloc	32
	.seh_endprologue
	movq	%rcx, 16(%rbp)
	movq	16(%rbp), %rax
	movq	%rax, %rcx
	call	_ZN4plog21DeleteCriticalSectionEPNS_16CRITICAL_SECTIONE
	nop
	addq	$32, %rsp
	popq	%rbp
	ret
	.seh_handler	__gxx_personality_seh0, @unwind, @except
	.seh_handlerdata
.LLSDA14804:
	.byte	0xff
	.byte	0xff
	.byte	0x1
	.uleb128 .LLSDACSE14804-.LLSDACSB14804
.LLSDACSB14804:
.LLSDACSE14804:
	.section	.text$_ZN4plog4util5MutexD1Ev,"x"
	.linkonce discard
	.seh_endproc
	.section	.text$_ZN4plog4util5Mutex4lockEv,"x"
	.linkonce discard
	.align 2
	.globl	_ZN4plog4util5Mutex4lockEv
	.def	_ZN4plog4util5Mutex4lockEv;	.scl	2;	.type	32;	.endef
	.seh_proc	_ZN4plog4util5Mutex4lockEv
_ZN4plog4util5Mutex4lockEv:
.LFB14805:
	pushq	%rbp
	.seh_pushreg	%rbp
	movq	%rsp, %rbp
	.seh_setframe	%rbp, 0
	subq	$32, %rsp
	.seh_stackalloc	32
	.seh_endprologue
	movq	%rcx, 16(%rbp)
	movq	16(%rbp), %rax
	movq	%rax, %rcx
	call	_ZN4plog20EnterCriticalSectionEPNS_16CRITICAL_SECTIONE
	nop
	addq	$32, %rsp
	popq	%rbp
	ret
	.seh_endproc
	.section	.text$_ZN4plog4util5Mutex6unlockEv,"x"
	.linkonce discard
	.align 2
	.globl	_ZN4plog4util5Mutex6unlockEv
	.def	_ZN4plog4util5Mutex6unlockEv;	.scl	2;	.type	32;	.endef
	.seh_proc	_ZN4plog4util5Mutex6unlockEv
_ZN4plog4util5Mutex6unlockEv:
.LFB14806:
	pushq	%rbp
	.seh_pushreg	%rbp
	movq	%rsp, %rbp
	.seh_setframe	%rbp, 0
	subq	$32, %rsp
	.seh_stackalloc	32
	.seh_endprologue
	movq	%rcx, 16(%rbp)
	movq	16(%rbp), %rax
	movq	%rax, %rcx
	call	_ZN4plog20LeaveCriticalSectionEPNS_16CRITICAL_SECTIONE
	nop
	addq	$32, %rsp
	popq	%rbp
	ret
	.seh_endproc
	.section	.text$_ZN4plog4util9MutexLockC1ERNS0_5MutexE,"x"
	.linkonce discard
	.align 2
	.globl	_ZN4plog4util9MutexLockC1ERNS0_5MutexE
	.def	_ZN4plog4util9MutexLockC1ERNS0_5MutexE;	.scl	2;	.type	32;	.endef
	.seh_proc	_ZN4plog4util9MutexLockC1ERNS0_5MutexE
_ZN4plog4util9MutexLockC1ERNS0_5MutexE:
.LFB14809:
	pushq	%rbp
	.seh_pushreg	%rbp
	movq	%rsp, %rbp
	.seh_setframe	%rbp, 0
	subq	$32, %rsp
	.seh_stackalloc	32
	.seh_endprologue
	movq	%rcx, 16(%rbp)
	movq	%rdx, 24(%rbp)
	movq	16(%rbp), %rcx
	call	_ZN4plog4util11NonCopyableC2Ev
	movq	16(%rbp), %rax
	movq	24(%rbp), %rdx
	movq	%rdx, (%rax)
	movq	16(%rbp), %rax
	movq	(%rax), %rax
	movq	%rax, %rcx
	call	_ZN4plog4util5Mutex4lockEv
	nop
	addq	$32, %rsp
	popq	%rbp
	ret
	.seh_endproc
	.section	.text$_ZN4plog4util9MutexLockD1Ev,"x"
	.linkonce discard
	.align 2
	.globl	_ZN4plog4util9MutexLockD1Ev
	.def	_ZN4plog4util9MutexLockD1Ev;	.scl	2;	.type	32;	.endef
	.seh_proc	_ZN4plog4util9MutexLockD1Ev
_ZN4plog4util9MutexLockD1Ev:
.LFB14812:
	pushq	%rbp
	.seh_pushreg	%rbp
	movq	%rsp, %rbp
	.seh_setframe	%rbp, 0
	subq	$32, %rsp
	.seh_stackalloc	32
	.seh_endprologue
	movq	%rcx, 16(%rbp)
	movq	16(%rbp), %rax
	movq	(%rax), %rax
	movq	%rax, %rcx
	call	_ZN4plog4util5Mutex6unlockEv
	nop
	addq	$32, %rsp
	popq	%rbp
	ret
	.seh_handler	__gxx_personality_seh0, @unwind, @except
	.seh_handlerdata
.LLSDA14812:
	.byte	0xff
	.byte	0xff
	.byte	0x1
	.uleb128 .LLSDACSE14812-.LLSDACSB14812
.LLSDACSB14812:
.LLSDACSE14812:
	.section	.text$_ZN4plog4util9MutexLockD1Ev,"x"
	.linkonce discard
	.seh_endproc
	.section .rdata,"dr"
.LC12:
	.ascii "(null)\0"
	.section	.text$_ZN4plog6detaillsERNSt7__cxx1119basic_ostringstreamIwSt11char_traitsIwESaIwEEEPKc,"x"
	.linkonce discard
	.globl	_ZN4plog6detaillsERNSt7__cxx1119basic_ostringstreamIwSt11char_traitsIwESaIwEEEPKc
	.def	_ZN4plog6detaillsERNSt7__cxx1119basic_ostringstreamIwSt11char_traitsIwESaIwEEEPKc;	.scl	2;	.type	32;	.endef
	.seh_proc	_ZN4plog6detaillsERNSt7__cxx1119basic_ostringstreamIwSt11char_traitsIwESaIwEEEPKc
_ZN4plog6detaillsERNSt7__cxx1119basic_ostringstreamIwSt11char_traitsIwESaIwEEEPKc:
.LFB14820:
	pushq	%rbp
	.seh_pushreg	%rbp
	pushq	%rbx
	.seh_pushreg	%rbx
	subq	$72, %rsp
	.seh_stackalloc	72
	leaq	128(%rsp), %rbp
	.seh_setframe	%rbp, 128
	.seh_endprologue
	movq	%rcx, -32(%rbp)
	movq	%rdx, -24(%rbp)
	cmpq	$0, -24(%rbp)
	je	.L282
	movq	-24(%rbp), %rax
	jmp	.L283
.L282:
	leaq	.LC12(%rip), %rax
.L283:
	movq	%rax, -24(%rbp)
	leaq	-96(%rbp), %rax
	movq	-24(%rbp), %rdx
	movq	%rax, %rcx
.LEHB27:
	call	_ZN4plog4util6toWideB5cxx11EPKc
.LEHE27:
	movq	-32(%rbp), %rax
	leaq	-96(%rbp), %rdx
	movq	%rax, %rcx
.LEHB28:
	call	_ZStlsIwSt11char_traitsIwESaIwEERSt13basic_ostreamIT_T0_ES7_RKNSt7__cxx1112basic_stringIS4_S5_T1_EE
.LEHE28:
	leaq	-96(%rbp), %rax
	movq	%rax, %rcx
	call	_ZNSt7__cxx1112basic_stringIwSt11char_traitsIwESaIwEED1Ev
	jmp	.L286
.L285:
	movq	%rax, %rbx
	leaq	-96(%rbp), %rax
	movq	%rax, %rcx
	call	_ZNSt7__cxx1112basic_stringIwSt11char_traitsIwESaIwEED1Ev
	movq	%rbx, %rax
	movq	%rax, %rcx
.LEHB29:
	call	_Unwind_Resume
	nop
.LEHE29:
.L286:
	addq	$72, %rsp
	popq	%rbx
	popq	%rbp
	ret
	.seh_handler	__gxx_personality_seh0, @unwind, @except
	.seh_handlerdata
.LLSDA14820:
	.byte	0xff
	.byte	0xff
	.byte	0x1
	.uleb128 .LLSDACSE14820-.LLSDACSB14820
.LLSDACSB14820:
	.uleb128 .LEHB27-.LFB14820
	.uleb128 .LEHE27-.LEHB27
	.uleb128 0
	.uleb128 0
	.uleb128 .LEHB28-.LFB14820
	.uleb128 .LEHE28-.LEHB28
	.uleb128 .L285-.LFB14820
	.uleb128 0
	.uleb128 .LEHB29-.LFB14820
	.uleb128 .LEHE29-.LEHB29
	.uleb128 0
	.uleb128 0
.LLSDACSE14820:
	.section	.text$_ZN4plog6detaillsERNSt7__cxx1119basic_ostringstreamIwSt11char_traitsIwESaIwEEEPKc,"x"
	.linkonce discard
	.seh_endproc
	.section	.text$_ZN4plog6RecordC1ENS_8SeverityEPKcyS3_PKvi,"x"
	.linkonce discard
	.align 2
	.globl	_ZN4plog6RecordC1ENS_8SeverityEPKcyS3_PKvi
	.def	_ZN4plog6RecordC1ENS_8SeverityEPKcyS3_PKvi;	.scl	2;	.type	32;	.endef
	.seh_proc	_ZN4plog6RecordC1ENS_8SeverityEPKcyS3_PKvi
_ZN4plog6RecordC1ENS_8SeverityEPKcyS3_PKvi:
.LFB14828:
	pushq	%rbp
	.seh_pushreg	%rbp
	pushq	%rbx
	.seh_pushreg	%rbx
	subq	$40, %rsp
	.seh_stackalloc	40
	leaq	128(%rsp), %rbp
	.seh_setframe	%rbp, 128
	.seh_endprologue
	movq	%rcx, -64(%rbp)
	movl	%edx, -56(%rbp)
	movq	%r8, -48(%rbp)
	movq	%r9, -40(%rbp)
	leaq	16+_ZTVN4plog6RecordE(%rip), %rdx
	movq	-64(%rbp), %rax
	movq	%rdx, (%rax)
	movq	-64(%rbp), %rax
	movl	-56(%rbp), %edx
	movl	%edx, 24(%rax)
.LEHB30:
	call	_ZN4plog4util6gettidEv
	movq	-64(%rbp), %rdx
	movl	%eax, 28(%rdx)
	movq	-64(%rbp), %rax
	movq	-24(%rbp), %rdx
	movq	%rdx, 32(%rax)
	movq	-64(%rbp), %rax
	movq	-40(%rbp), %rdx
	movq	%rdx, 40(%rax)
	movq	-64(%rbp), %rax
	addq	$48, %rax
	movq	%rax, %rcx
	call	_ZNSt7__cxx1119basic_ostringstreamIwSt11char_traitsIwESaIwEEC1Ev
.LEHE30:
	movq	-64(%rbp), %rax
	movq	-48(%rbp), %rdx
	movq	%rdx, 424(%rax)
	movq	-64(%rbp), %rax
	movq	-32(%rbp), %rdx
	movq	%rdx, 432(%rax)
	movq	-64(%rbp), %rax
	movl	-16(%rbp), %edx
	movl	%edx, 440(%rax)
	movq	-64(%rbp), %rax
	addq	$448, %rax
	movq	%rax, %rcx
	call	_ZNSt7__cxx1112basic_stringIcSt11char_traitsIcESaIcEEC1Ev
	movq	-64(%rbp), %rax
	addq	$480, %rax
	movq	%rax, %rcx
	call	_ZNSt7__cxx1112basic_stringIwSt11char_traitsIwESaIwEEC1Ev
	movq	-64(%rbp), %rax
	addq	$8, %rax
	movq	%rax, %rcx
.LEHB31:
	call	_ZN4plog4util5ftimeEP5timeb
.LEHE31:
	jmp	.L290
.L289:
	movq	%rax, %rbx
	movq	-64(%rbp), %rax
	addq	$480, %rax
	movq	%rax, %rcx
	call	_ZNSt7__cxx1112basic_stringIwSt11char_traitsIwESaIwEED1Ev
	movq	-64(%rbp), %rax
	addq	$448, %rax
	movq	%rax, %rcx
	call	_ZNSt7__cxx1112basic_stringIcSt11char_traitsIcESaIcEED1Ev
	movq	-64(%rbp), %rax
	addq	$48, %rax
	movq	%rax, %rcx
	call	_ZNSt7__cxx1119basic_ostringstreamIwSt11char_traitsIwESaIwEED1Ev
	movq	%rbx, %rax
	movq	%rax, %rcx
.LEHB32:
	call	_Unwind_Resume
	nop
.LEHE32:
.L290:
	addq	$40, %rsp
	popq	%rbx
	popq	%rbp
	ret
	.seh_handler	__gxx_personality_seh0, @unwind, @except
	.seh_handlerdata
.LLSDA14828:
	.byte	0xff
	.byte	0xff
	.byte	0x1
	.uleb128 .LLSDACSE14828-.LLSDACSB14828
.LLSDACSB14828:
	.uleb128 .LEHB30-.LFB14828
	.uleb128 .LEHE30-.LEHB30
	.uleb128 0
	.uleb128 0
	.uleb128 .LEHB31-.LFB14828
	.uleb128 .LEHE31-.LEHB31
	.uleb128 .L289-.LFB14828
	.uleb128 0
	.uleb128 .LEHB32-.LFB14828
	.uleb128 .LEHE32-.LEHB32
	.uleb128 0
	.uleb128 0
.LLSDACSE14828:
	.section	.text$_ZN4plog6RecordC1ENS_8SeverityEPKcyS3_PKvi,"x"
	.linkonce discard
	.seh_endproc
	.section	.text$_ZN4plog6Record3refEv,"x"
	.linkonce discard
	.align 2
	.globl	_ZN4plog6Record3refEv
	.def	_ZN4plog6Record3refEv;	.scl	2;	.type	32;	.endef
	.seh_proc	_ZN4plog6Record3refEv
_ZN4plog6Record3refEv:
.LFB14829:
	pushq	%rbp
	.seh_pushreg	%rbp
	movq	%rsp, %rbp
	.seh_setframe	%rbp, 0
	.seh_endprologue
	movq	%rcx, 16(%rbp)
	movq	16(%rbp), %rax
	popq	%rbp
	ret
	.seh_endproc
	.section	.text$_ZNK4plog6Record7getTimeEv,"x"
	.linkonce discard
	.align 2
	.globl	_ZNK4plog6Record7getTimeEv
	.def	_ZNK4plog6Record7getTimeEv;	.scl	2;	.type	32;	.endef
	.seh_proc	_ZNK4plog6Record7getTimeEv
_ZNK4plog6Record7getTimeEv:
.LFB14836:
	pushq	%rbp
	.seh_pushreg	%rbp
	movq	%rsp, %rbp
	.seh_setframe	%rbp, 0
	.seh_endprologue
	movq	%rcx, 16(%rbp)
	movq	16(%rbp), %rax
	addq	$8, %rax
	popq	%rbp
	ret
	.seh_endproc
	.section	.text$_ZNK4plog6Record11getSeverityEv,"x"
	.linkonce discard
	.align 2
	.globl	_ZNK4plog6Record11getSeverityEv
	.def	_ZNK4plog6Record11getSeverityEv;	.scl	2;	.type	32;	.endef
	.seh_proc	_ZNK4plog6Record11getSeverityEv
_ZNK4plog6Record11getSeverityEv:
.LFB14837:
	pushq	%rbp
	.seh_pushreg	%rbp
	movq	%rsp, %rbp
	.seh_setframe	%rbp, 0
	.seh_endprologue
	movq	%rcx, 16(%rbp)
	movq	16(%rbp), %rax
	movl	24(%rax), %eax
	popq	%rbp
	ret
	.seh_endproc
	.section	.text$_ZNK4plog6Record6getTidEv,"x"
	.linkonce discard
	.align 2
	.globl	_ZNK4plog6Record6getTidEv
	.def	_ZNK4plog6Record6getTidEv;	.scl	2;	.type	32;	.endef
	.seh_proc	_ZNK4plog6Record6getTidEv
_ZNK4plog6Record6getTidEv:
.LFB14838:
	pushq	%rbp
	.seh_pushreg	%rbp
	movq	%rsp, %rbp
	.seh_setframe	%rbp, 0
	.seh_endprologue
	movq	%rcx, 16(%rbp)
	movq	16(%rbp), %rax
	movl	28(%rax), %eax
	popq	%rbp
	ret
	.seh_endproc
	.section	.text$_ZNK4plog6Record9getObjectEv,"x"
	.linkonce discard
	.align 2
	.globl	_ZNK4plog6Record9getObjectEv
	.def	_ZNK4plog6Record9getObjectEv;	.scl	2;	.type	32;	.endef
	.seh_proc	_ZNK4plog6Record9getObjectEv
_ZNK4plog6Record9getObjectEv:
.LFB14839:
	pushq	%rbp
	.seh_pushreg	%rbp
	movq	%rsp, %rbp
	.seh_setframe	%rbp, 0
	.seh_endprologue
	movq	%rcx, 16(%rbp)
	movq	16(%rbp), %rax
	movq	32(%rax), %rax
	popq	%rbp
	ret
	.seh_endproc
	.section	.text$_ZNK4plog6Record7getLineEv,"x"
	.linkonce discard
	.align 2
	.globl	_ZNK4plog6Record7getLineEv
	.def	_ZNK4plog6Record7getLineEv;	.scl	2;	.type	32;	.endef
	.seh_proc	_ZNK4plog6Record7getLineEv
_ZNK4plog6Record7getLineEv:
.LFB14840:
	pushq	%rbp
	.seh_pushreg	%rbp
	movq	%rsp, %rbp
	.seh_setframe	%rbp, 0
	.seh_endprologue
	movq	%rcx, 16(%rbp)
	movq	16(%rbp), %rax
	movq	40(%rax), %rax
	popq	%rbp
	ret
	.seh_endproc
	.section	.text$_ZNK4plog6Record10getMessageEv,"x"
	.linkonce discard
	.align 2
	.globl	_ZNK4plog6Record10getMessageEv
	.def	_ZNK4plog6Record10getMessageEv;	.scl	2;	.type	32;	.endef
	.seh_proc	_ZNK4plog6Record10getMessageEv
_ZNK4plog6Record10getMessageEv:
.LFB14841:
	pushq	%rbp
	.seh_pushreg	%rbp
	movq	%rsp, %rbp
	.seh_setframe	%rbp, 0
	subq	$64, %rsp
	.seh_stackalloc	64
	.seh_endprologue
	movq	%rcx, 16(%rbp)
	movq	16(%rbp), %rax
	leaq	48(%rax), %rdx
	leaq	-32(%rbp), %rax
	movq	%rax, %rcx
	call	_ZNKSt7__cxx1119basic_ostringstreamIwSt11char_traitsIwESaIwEE3strEv
	movq	16(%rbp), %rax
	leaq	480(%rax), %rcx
	leaq	-32(%rbp), %rax
	movq	%rax, %rdx
	call	_ZNSt7__cxx1112basic_stringIwSt11char_traitsIwESaIwEEaSEOS4_
	leaq	-32(%rbp), %rax
	movq	%rax, %rcx
	call	_ZNSt7__cxx1112basic_stringIwSt11char_traitsIwESaIwEED1Ev
	movq	16(%rbp), %rax
	addq	$480, %rax
	movq	%rax, %rcx
	call	_ZNKSt7__cxx1112basic_stringIwSt11char_traitsIwESaIwEE5c_strEv
	addq	$64, %rsp
	popq	%rbp
	ret
	.seh_endproc
	.section	.text$_ZNK4plog6Record7getFuncEv,"x"
	.linkonce discard
	.align 2
	.globl	_ZNK4plog6Record7getFuncEv
	.def	_ZNK4plog6Record7getFuncEv;	.scl	2;	.type	32;	.endef
	.seh_proc	_ZNK4plog6Record7getFuncEv
_ZNK4plog6Record7getFuncEv:
.LFB14845:
	pushq	%rbp
	.seh_pushreg	%rbp
	movq	%rsp, %rbp
	.seh_setframe	%rbp, 0
	subq	$64, %rsp
	.seh_stackalloc	64
	.seh_endprologue
	movq	%rcx, 16(%rbp)
	movq	16(%rbp), %rax
	movq	424(%rax), %rdx
	leaq	-32(%rbp), %rax
	movq	%rax, %rcx
	call	_ZN4plog4util15processFuncNameB5cxx11EPKc
	movq	16(%rbp), %rax
	leaq	448(%rax), %rcx
	leaq	-32(%rbp), %rax
	movq	%rax, %rdx
	call	_ZNSt7__cxx1112basic_stringIcSt11char_traitsIcESaIcEEaSEOS4_
	leaq	-32(%rbp), %rax
	movq	%rax, %rcx
	call	_ZNSt7__cxx1112basic_stringIcSt11char_traitsIcESaIcEED1Ev
	movq	16(%rbp), %rax
	addq	$448, %rax
	movq	%rax, %rcx
	call	_ZNKSt7__cxx1112basic_stringIcSt11char_traitsIcESaIcEE5c_strEv
	addq	$64, %rsp
	popq	%rbp
	ret
	.seh_endproc
	.section	.text$_ZNK4plog6Record7getFileEv,"x"
	.linkonce discard
	.align 2
	.globl	_ZNK4plog6Record7getFileEv
	.def	_ZNK4plog6Record7getFileEv;	.scl	2;	.type	32;	.endef
	.seh_proc	_ZNK4plog6Record7getFileEv
_ZNK4plog6Record7getFileEv:
.LFB14849:
	pushq	%rbp
	.seh_pushreg	%rbp
	movq	%rsp, %rbp
	.seh_setframe	%rbp, 0
	.seh_endprologue
	movq	%rcx, 16(%rbp)
	movq	16(%rbp), %rax
	movq	432(%rax), %rax
	popq	%rbp
	ret
	.seh_endproc
	.section	.text$_ZN4plog6RecordD1Ev,"x"
	.linkonce discard
	.align 2
	.globl	_ZN4plog6RecordD1Ev
	.def	_ZN4plog6RecordD1Ev;	.scl	2;	.type	32;	.endef
	.seh_proc	_ZN4plog6RecordD1Ev
_ZN4plog6RecordD1Ev:
.LFB14852:
	pushq	%rbp
	.seh_pushreg	%rbp
	movq	%rsp, %rbp
	.seh_setframe	%rbp, 0
	subq	$32, %rsp
	.seh_stackalloc	32
	.seh_endprologue
	movq	%rcx, 16(%rbp)
	leaq	16+_ZTVN4plog6RecordE(%rip), %rdx
	movq	16(%rbp), %rax
	movq	%rdx, (%rax)
	movq	16(%rbp), %rax
	addq	$480, %rax
	movq	%rax, %rcx
	call	_ZNSt7__cxx1112basic_stringIwSt11char_traitsIwESaIwEED1Ev
	movq	16(%rbp), %rax
	addq	$448, %rax
	movq	%rax, %rcx
	call	_ZNSt7__cxx1112basic_stringIcSt11char_traitsIcESaIcEED1Ev
	movq	16(%rbp), %rax
	addq	$48, %rax
	movq	%rax, %rcx
	call	_ZNSt7__cxx1119basic_ostringstreamIwSt11char_traitsIwESaIwEED1Ev
	nop
	addq	$32, %rsp
	popq	%rbp
	ret
	.seh_endproc
	.section	.text$_ZN4plog6RecordD0Ev,"x"
	.linkonce discard
	.align 2
	.globl	_ZN4plog6RecordD0Ev
	.def	_ZN4plog6RecordD0Ev;	.scl	2;	.type	32;	.endef
	.seh_proc	_ZN4plog6RecordD0Ev
_ZN4plog6RecordD0Ev:
.LFB14853:
	pushq	%rbp
	.seh_pushreg	%rbp
	movq	%rsp, %rbp
	.seh_setframe	%rbp, 0
	subq	$32, %rsp
	.seh_stackalloc	32
	.seh_endprologue
	movq	%rcx, 16(%rbp)
	movq	16(%rbp), %rcx
	call	_ZN4plog6RecordD1Ev
	movl	$512, %edx
	movq	16(%rbp), %rcx
	call	_ZdlPvy
	nop
	addq	$32, %rsp
	popq	%rbp
	ret
	.seh_endproc
	.section	.text$_ZNK4plog6Record13getInstanceIdEv,"x"
	.linkonce discard
	.align 2
	.globl	_ZNK4plog6Record13getInstanceIdEv
	.def	_ZNK4plog6Record13getInstanceIdEv;	.scl	2;	.type	32;	.endef
	.seh_proc	_ZNK4plog6Record13getInstanceIdEv
_ZNK4plog6Record13getInstanceIdEv:
.LFB14854:
	pushq	%rbp
	.seh_pushreg	%rbp
	movq	%rsp, %rbp
	.seh_setframe	%rbp, 0
	.seh_endprologue
	movq	%rcx, 16(%rbp)
	movq	16(%rbp), %rax
	movl	440(%rax), %eax
	popq	%rbp
	ret
	.seh_endproc
	.section	.text$_ZN4plog9IAppenderD2Ev,"x"
	.linkonce discard
	.align 2
	.globl	_ZN4plog9IAppenderD2Ev
	.def	_ZN4plog9IAppenderD2Ev;	.scl	2;	.type	32;	.endef
	.seh_proc	_ZN4plog9IAppenderD2Ev
_ZN4plog9IAppenderD2Ev:
.LFB14856:
	pushq	%rbp
	.seh_pushreg	%rbp
	movq	%rsp, %rbp
	.seh_setframe	%rbp, 0
	.seh_endprologue
	movq	%rcx, 16(%rbp)
	leaq	16+_ZTVN4plog9IAppenderE(%rip), %rdx
	movq	16(%rbp), %rax
	movq	%rdx, (%rax)
	nop
	popq	%rbp
	ret
	.seh_endproc
	.section	.text$_ZN4plog13UTF8Converter6headerERKNSt7__cxx1112basic_stringIwSt11char_traitsIwESaIwEEE,"x"
	.linkonce discard
	.globl	_ZN4plog13UTF8Converter6headerERKNSt7__cxx1112basic_stringIwSt11char_traitsIwESaIwEEE
	.def	_ZN4plog13UTF8Converter6headerERKNSt7__cxx1112basic_stringIwSt11char_traitsIwESaIwEEE;	.scl	2;	.type	32;	.endef
	.seh_proc	_ZN4plog13UTF8Converter6headerERKNSt7__cxx1112basic_stringIwSt11char_traitsIwESaIwEEE
_ZN4plog13UTF8Converter6headerERKNSt7__cxx1112basic_stringIwSt11char_traitsIwESaIwEEE:
.LFB14868:
	pushq	%rbp
	.seh_pushreg	%rbp
	pushq	%rbx
	.seh_pushreg	%rbx
	subq	$136, %rsp
	.seh_stackalloc	136
	leaq	128(%rsp), %rbp
	.seh_setframe	%rbp, 128
	.seh_endprologue
	movq	%rcx, 32(%rbp)
	movq	%rdx, 40(%rbp)
	movl	$12565487, -84(%rbp)
	leaq	-80(%rbp), %rax
	movq	40(%rbp), %rdx
	movq	%rax, %rcx
.LEHB33:
	call	_ZN4plog13UTF8Converter7convertERKNSt7__cxx1112basic_stringIwSt11char_traitsIwESaIwEEE
.LEHE33:
	leaq	-1(%rbp), %rax
	movq	%rax, %rcx
	call	_ZNSaIcEC1Ev
	leaq	-1(%rbp), %rcx
	leaq	-84(%rbp), %rdx
	leaq	-48(%rbp), %rax
	movq	%rcx, %r8
	movq	%rax, %rcx
.LEHB34:
	call	_ZNSt7__cxx1112basic_stringIcSt11char_traitsIcESaIcEEC1EPKcRKS3_
.LEHE34:
	movq	32(%rbp), %rax
	leaq	-80(%rbp), %rcx
	leaq	-48(%rbp), %rdx
	movq	%rcx, %r8
	movq	%rax, %rcx
.LEHB35:
	call	_ZStplIcSt11char_traitsIcESaIcEENSt7__cxx1112basic_stringIT_T0_T1_EEOS8_S9_
.LEHE35:
	nop
	leaq	-48(%rbp), %rax
	movq	%rax, %rcx
	call	_ZNSt7__cxx1112basic_stringIcSt11char_traitsIcESaIcEED1Ev
	leaq	-1(%rbp), %rax
	movq	%rax, %rcx
	call	_ZNSaIcED1Ev
	leaq	-80(%rbp), %rax
	movq	%rax, %rcx
	call	_ZNSt7__cxx1112basic_stringIcSt11char_traitsIcESaIcEED1Ev
	jmp	.L320
.L319:
	movq	%rax, %rbx
	leaq	-48(%rbp), %rax
	movq	%rax, %rcx
	call	_ZNSt7__cxx1112basic_stringIcSt11char_traitsIcESaIcEED1Ev
	jmp	.L317
.L318:
	movq	%rax, %rbx
.L317:
	leaq	-1(%rbp), %rax
	movq	%rax, %rcx
	call	_ZNSaIcED1Ev
	leaq	-80(%rbp), %rax
	movq	%rax, %rcx
	call	_ZNSt7__cxx1112basic_stringIcSt11char_traitsIcESaIcEED1Ev
	movq	%rbx, %rax
	movq	%rax, %rcx
.LEHB36:
	call	_Unwind_Resume
.LEHE36:
.L320:
	movq	32(%rbp), %rax
	addq	$136, %rsp
	popq	%rbx
	popq	%rbp
	ret
	.seh_handler	__gxx_personality_seh0, @unwind, @except
	.seh_handlerdata
.LLSDA14868:
	.byte	0xff
	.byte	0xff
	.byte	0x1
	.uleb128 .LLSDACSE14868-.LLSDACSB14868
.LLSDACSB14868:
	.uleb128 .LEHB33-.LFB14868
	.uleb128 .LEHE33-.LEHB33
	.uleb128 0
	.uleb128 0
	.uleb128 .LEHB34-.LFB14868
	.uleb128 .LEHE34-.LEHB34
	.uleb128 .L318-.LFB14868
	.uleb128 0
	.uleb128 .LEHB35-.LFB14868
	.uleb128 .LEHE35-.LEHB35
	.uleb128 .L319-.LFB14868
	.uleb128 0
	.uleb128 .LEHB36-.LFB14868
	.uleb128 .LEHE36-.LEHB36
	.uleb128 0
	.uleb128 0
.LLSDACSE14868:
	.section	.text$_ZN4plog13UTF8Converter6headerERKNSt7__cxx1112basic_stringIwSt11char_traitsIwESaIwEEE,"x"
	.linkonce discard
	.seh_endproc
	.section	.text$_ZN4plog13UTF8Converter7convertERKNSt7__cxx1112basic_stringIwSt11char_traitsIwESaIwEEE,"x"
	.linkonce discard
	.globl	_ZN4plog13UTF8Converter7convertERKNSt7__cxx1112basic_stringIwSt11char_traitsIwESaIwEEE
	.def	_ZN4plog13UTF8Converter7convertERKNSt7__cxx1112basic_stringIwSt11char_traitsIwESaIwEEE;	.scl	2;	.type	32;	.endef
	.seh_proc	_ZN4plog13UTF8Converter7convertERKNSt7__cxx1112basic_stringIwSt11char_traitsIwESaIwEEE
_ZN4plog13UTF8Converter7convertERKNSt7__cxx1112basic_stringIwSt11char_traitsIwESaIwEEE:
.LFB14869:
	pushq	%rbp
	.seh_pushreg	%rbp
	movq	%rsp, %rbp
	.seh_setframe	%rbp, 0
	subq	$32, %rsp
	.seh_stackalloc	32
	.seh_endprologue
	movq	%rcx, 16(%rbp)
	movq	%rdx, 24(%rbp)
	movq	16(%rbp), %rax
	movq	24(%rbp), %rdx
	movl	$65001, %r8d
	movq	%rax, %rcx
	call	_ZN4plog4util8toNarrowERKNSt7__cxx1112basic_stringIwSt11char_traitsIwESaIwEEEl
	movq	16(%rbp), %rax
	addq	$32, %rsp
	popq	%rbp
	ret
	.seh_endproc
	.section .rdata,"dr"
	.align 2
.LC13:
	.ascii ".\0c\0s\0v\0\0\0"
	.text
	.def	_ZN4plog12_GLOBAL__N_15isCsvEPKw;	.scl	3;	.type	32;	.endef
	.seh_proc	_ZN4plog12_GLOBAL__N_15isCsvEPKw
_ZN4plog12_GLOBAL__N_15isCsvEPKw:
.LFB14891:
	pushq	%rbp
	.seh_pushreg	%rbp
	movq	%rsp, %rbp
	.seh_setframe	%rbp, 0
	subq	$48, %rsp
	.seh_stackalloc	48
	.seh_endprologue
	movq	%rcx, 16(%rbp)
	movq	16(%rbp), %rcx
	call	_ZN4plog4util16findExtensionDotEPKw
	movq	%rax, -8(%rbp)
	cmpq	$0, -8(%rbp)
	je	.L324
	movq	-8(%rbp), %rax
	leaq	.LC13(%rip), %rdx
	movq	%rax, %rcx
	call	wcscmp
	testl	%eax, %eax
	jne	.L324
	movl	$1, %eax
	jmp	.L325
.L324:
	movl	$0, %eax
.L325:
	addq	$48, %rsp
	popq	%rbp
	ret
	.seh_endproc
	.section	.text$_ZN4plog4initENS_8SeverityEPKcyi,"x"
	.linkonce discard
	.globl	_ZN4plog4initENS_8SeverityEPKcyi
	.def	_ZN4plog4initENS_8SeverityEPKcyi;	.scl	2;	.type	32;	.endef
	.seh_proc	_ZN4plog4initENS_8SeverityEPKcyi
_ZN4plog4initENS_8SeverityEPKcyi:
.LFB14897:
	pushq	%rbp
	.seh_pushreg	%rbp
	movq	%rsp, %rbp
	.seh_setframe	%rbp, 0
	subq	$32, %rsp
	.seh_stackalloc	32
	.seh_endprologue
	movl	%ecx, 16(%rbp)
	movq	%rdx, 24(%rbp)
	movq	%r8, 32(%rbp)
	movl	%r9d, 40(%rbp)
	movl	40(%rbp), %ecx
	movq	32(%rbp), %rdx
	movq	24(%rbp), %rax
	movl	%ecx, %r9d
	movq	%rdx, %r8
	movq	%rax, %rdx
	movl	16(%rbp), %ecx
	call	_ZN4plog4initILi0EEERNS_6LoggerIXT_EEENS_8SeverityEPKcyi
	addq	$32, %rsp
	popq	%rbp
	ret
	.seh_endproc
	.text
	.globl	_Z4beepii
	.def	_Z4beepii;	.scl	2;	.type	32;	.endef
	.seh_proc	_Z4beepii
_Z4beepii:
.LFB15650:
	pushq	%rbp
	.seh_pushreg	%rbp
	movq	%rsp, %rbp
	.seh_setframe	%rbp, 0
	subq	$32, %rsp
	.seh_stackalloc	32
	.seh_endprologue
	movl	%ecx, 16(%rbp)
	movl	%edx, 24(%rbp)
	movl	24(%rbp), %edx
	movl	16(%rbp), %eax
	movl	%eax, %ecx
	movq	__imp_Beep(%rip), %rax
	call	*%rax
	addq	$32, %rsp
	popq	%rbp
	ret
	.seh_endproc
	.section .rdata,"dr"
.LC14:
	.ascii "windows32\0"
	.text
	.globl	_Z17get_platform_nameB5cxx11v
	.def	_Z17get_platform_nameB5cxx11v;	.scl	2;	.type	32;	.endef
	.seh_proc	_Z17get_platform_nameB5cxx11v
_Z17get_platform_nameB5cxx11v:
.LFB15703:
	pushq	%rbp
	.seh_pushreg	%rbp
	pushq	%rbx
	.seh_pushreg	%rbx
	subq	$56, %rsp
	.seh_stackalloc	56
	leaq	128(%rsp), %rbp
	.seh_setframe	%rbp, 128
	.seh_endprologue
	movq	%rcx, -48(%rbp)
	leaq	-81(%rbp), %rax
	movq	%rax, %rcx
	call	_ZNSaIcEC1Ev
	leaq	-81(%rbp), %rax
	movq	%rax, %r8
	leaq	.LC14(%rip), %rdx
	movq	-48(%rbp), %rcx
.LEHB37:
	call	_ZNSt7__cxx1112basic_stringIcSt11char_traitsIcESaIcEEC1EPKcRKS3_
.LEHE37:
	nop
	leaq	-81(%rbp), %rax
	movq	%rax, %rcx
	call	_ZNSaIcED1Ev
	jmp	.L335
.L334:
	movq	%rax, %rbx
	leaq	-81(%rbp), %rax
	movq	%rax, %rcx
	call	_ZNSaIcED1Ev
	movq	%rbx, %rax
	movq	%rax, %rcx
.LEHB38:
	call	_Unwind_Resume
.LEHE38:
.L335:
	movq	-48(%rbp), %rax
	addq	$56, %rsp
	popq	%rbx
	popq	%rbp
	ret
	.seh_handler	__gxx_personality_seh0, @unwind, @except
	.seh_handlerdata
.LLSDA15703:
	.byte	0xff
	.byte	0xff
	.byte	0x1
	.uleb128 .LLSDACSE15703-.LLSDACSB15703
.LLSDACSB15703:
	.uleb128 .LEHB37-.LFB15703
	.uleb128 .LEHE37-.LEHB37
	.uleb128 .L334-.LFB15703
	.uleb128 0
	.uleb128 .LEHB38-.LFB15703
	.uleb128 .LEHE38-.LEHB38
	.uleb128 0
	.uleb128 0
.LLSDACSE15703:
	.text
	.seh_endproc
	.section .rdata,"dr"
.LC15:
	.ascii "NOT\0"
	.text
	.globl	_Z23getposixorunixorneitherB5cxx11v
	.def	_Z23getposixorunixorneitherB5cxx11v;	.scl	2;	.type	32;	.endef
	.seh_proc	_Z23getposixorunixorneitherB5cxx11v
_Z23getposixorunixorneitherB5cxx11v:
.LFB15704:
	pushq	%rbp
	.seh_pushreg	%rbp
	pushq	%rbx
	.seh_pushreg	%rbx
	subq	$56, %rsp
	.seh_stackalloc	56
	leaq	128(%rsp), %rbp
	.seh_setframe	%rbp, 128
	.seh_endprologue
	movq	%rcx, -48(%rbp)
	leaq	-81(%rbp), %rax
	movq	%rax, %rcx
	call	_ZNSaIcEC1Ev
	leaq	-81(%rbp), %rax
	movq	%rax, %r8
	leaq	.LC15(%rip), %rdx
	movq	-48(%rbp), %rcx
.LEHB39:
	call	_ZNSt7__cxx1112basic_stringIcSt11char_traitsIcESaIcEEC1EPKcRKS3_
.LEHE39:
	nop
	leaq	-81(%rbp), %rax
	movq	%rax, %rcx
	call	_ZNSaIcED1Ev
	jmp	.L340
.L339:
	movq	%rax, %rbx
	leaq	-81(%rbp), %rax
	movq	%rax, %rcx
	call	_ZNSaIcED1Ev
	movq	%rbx, %rax
	movq	%rax, %rcx
.LEHB40:
	call	_Unwind_Resume
.LEHE40:
.L340:
	movq	-48(%rbp), %rax
	addq	$56, %rsp
	popq	%rbx
	popq	%rbp
	ret
	.seh_handler	__gxx_personality_seh0, @unwind, @except
	.seh_handlerdata
.LLSDA15704:
	.byte	0xff
	.byte	0xff
	.byte	0x1
	.uleb128 .LLSDACSE15704-.LLSDACSB15704
.LLSDACSB15704:
	.uleb128 .LEHB39-.LFB15704
	.uleb128 .LEHE39-.LEHB39
	.uleb128 .L339-.LFB15704
	.uleb128 0
	.uleb128 .LEHB40-.LFB15704
	.uleb128 .LEHE40-.LEHB40
	.uleb128 0
	.uleb128 0
.LLSDACSE15704:
	.text
	.seh_endproc
	.section .rdata,"dr"
.LC16:
	.ascii "\0"
.LC17:
	.ascii "windows64\0"
.LC18:
	.ascii "cygwin\0"
.LC19:
	.ascii "USERPROFILE\0"
.LC20:
	.ascii "\\desktop\0"
.LC21:
	.ascii "dragonflybsd\0"
.LC22:
	.ascii "freebsd\0"
.LC23:
	.ascii "netbsd\0"
.LC24:
	.ascii "openbsd\0"
.LC25:
	.ascii "HOME\0"
.LC26:
	.ascii "/Desktop/example.txt\0"
.LC27:
	.ascii "error, unknown os\0"
	.text
	.globl	_Z10getdesktopB5cxx11v
	.def	_Z10getdesktopB5cxx11v;	.scl	2;	.type	32;	.endef
	.seh_proc	_Z10getdesktopB5cxx11v
_Z10getdesktopB5cxx11v:
.LFB15705:
	pushq	%rbp
	.seh_pushreg	%rbp
	pushq	%r13
	.seh_pushreg	%r13
	pushq	%r12
	.seh_pushreg	%r12
	pushq	%rdi
	.seh_pushreg	%rdi
	pushq	%rsi
	.seh_pushreg	%rsi
	pushq	%rbx
	.seh_pushreg	%rbx
	subq	$424, %rsp
	.seh_stackalloc	424
	leaq	128(%rsp), %rbp
	.seh_setframe	%rbp, 128
	.seh_endprologue
	movq	%rcx, 352(%rbp)
	leaq	-18(%rbp), %rax
	movq	%rax, %rcx
	call	_ZNSaIcEC1Ev
	leaq	-18(%rbp), %rdx
	leaq	-64(%rbp), %rax
	movq	%rdx, %r8
	leaq	.LC16(%rip), %rdx
	movq	%rax, %rcx
.LEHB41:
	call	_ZNSt7__cxx1112basic_stringIcSt11char_traitsIcESaIcEEC1EPKcRKS3_
.LEHE41:
	leaq	-18(%rbp), %rax
	movq	%rax, %rcx
	call	_ZNSaIcED1Ev
	leaq	-17(%rbp), %rax
	movq	%rax, %rcx
	call	_ZNSaIcEC1Ev
	leaq	-17(%rbp), %rdx
	leaq	-96(%rbp), %rax
	movq	%rdx, %r8
	leaq	.LC16(%rip), %rdx
	movq	%rax, %rcx
.LEHB42:
	call	_ZNSt7__cxx1112basic_stringIcSt11char_traitsIcESaIcEEC1EPKcRKS3_
.LEHE42:
	leaq	-17(%rbp), %rax
	movq	%rax, %rcx
	call	_ZNSaIcED1Ev
	movl	$0, %ebx
	movl	$0, %esi
	movl	$0, %edi
	leaq	-16(%rbp), %rax
	movq	%rax, %rcx
.LEHB43:
	call	_Z17get_platform_nameB5cxx11v
	movl	$1, %ebx
	leaq	-16(%rbp), %rax
	leaq	.LC14(%rip), %rdx
	movq	%rax, %rcx
	call	_ZSteqIcSt11char_traitsIcESaIcEEbRKNSt7__cxx1112basic_stringIT_T0_T1_EEPKS5_
	testb	%al, %al
	jne	.L342
	leaq	16(%rbp), %rax
	movq	%rax, %rcx
	call	_Z17get_platform_nameB5cxx11v
	movl	$1, %esi
	leaq	16(%rbp), %rax
	leaq	.LC17(%rip), %rdx
	movq	%rax, %rcx
	call	_ZSteqIcSt11char_traitsIcESaIcEEbRKNSt7__cxx1112basic_stringIT_T0_T1_EEPKS5_
	testb	%al, %al
	jne	.L342
	leaq	48(%rbp), %rax
	movq	%rax, %rcx
	call	_Z17get_platform_nameB5cxx11v
.LEHE43:
	movl	$1, %edi
	leaq	48(%rbp), %rax
	leaq	.LC18(%rip), %rdx
	movq	%rax, %rcx
	call	_ZSteqIcSt11char_traitsIcESaIcEEbRKNSt7__cxx1112basic_stringIT_T0_T1_EEPKS5_
	testb	%al, %al
	je	.L343
.L342:
	movl	$1, %r12d
	jmp	.L344
.L343:
	movl	$0, %r12d
.L344:
	testb	%dil, %dil
	je	.L345
	leaq	48(%rbp), %rax
	movq	%rax, %rcx
	call	_ZNSt7__cxx1112basic_stringIcSt11char_traitsIcESaIcEED1Ev
.L345:
	testb	%sil, %sil
	je	.L346
	leaq	16(%rbp), %rax
	movq	%rax, %rcx
	call	_ZNSt7__cxx1112basic_stringIcSt11char_traitsIcESaIcEED1Ev
.L346:
	testb	%bl, %bl
	je	.L347
	leaq	-16(%rbp), %rax
	movq	%rax, %rcx
	call	_ZNSt7__cxx1112basic_stringIcSt11char_traitsIcESaIcEED1Ev
.L347:
	testb	%r12b, %r12b
	je	.L348
	leaq	.LC19(%rip), %rcx
	call	getenv
	movq	%rax, %rdx
	leaq	-64(%rbp), %rax
	movq	%rax, %rcx
.LEHB44:
	call	_ZNSt7__cxx1112basic_stringIcSt11char_traitsIcESaIcEEaSEPKc
	leaq	80(%rbp), %rax
	leaq	-64(%rbp), %rdx
	leaq	.LC20(%rip), %r8
	movq	%rax, %rcx
	call	_ZStplIcSt11char_traitsIcESaIcEENSt7__cxx1112basic_stringIT_T0_T1_EERKS8_PKS5_
.LEHE44:
	leaq	80(%rbp), %rdx
	leaq	-96(%rbp), %rax
	movq	%rax, %rcx
	call	_ZNSt7__cxx1112basic_stringIcSt11char_traitsIcESaIcEEaSEOS4_
	leaq	80(%rbp), %rax
	movq	%rax, %rcx
	call	_ZNSt7__cxx1112basic_stringIcSt11char_traitsIcESaIcEED1Ev
	leaq	-96(%rbp), %rax
	movq	%rax, %rdx
	movq	352(%rbp), %rcx
	call	_ZNSt7__cxx1112basic_stringIcSt11char_traitsIcESaIcEEC1EOS4_
	jmp	.L349
.L348:
	movl	$0, %ebx
	movl	$0, %esi
	movl	$0, %edi
	movl	$0, %r12d
	leaq	112(%rbp), %rax
	movq	%rax, %rcx
.LEHB45:
	call	_Z17get_platform_nameB5cxx11v
	movl	$1, %ebx
	leaq	112(%rbp), %rax
	leaq	.LC21(%rip), %rdx
	movq	%rax, %rcx
	call	_ZSteqIcSt11char_traitsIcESaIcEEbRKNSt7__cxx1112basic_stringIT_T0_T1_EEPKS5_
	testb	%al, %al
	jne	.L350
	leaq	144(%rbp), %rax
	movq	%rax, %rcx
	call	_Z17get_platform_nameB5cxx11v
	movl	$1, %esi
	leaq	144(%rbp), %rax
	leaq	.LC22(%rip), %rdx
	movq	%rax, %rcx
	call	_ZSteqIcSt11char_traitsIcESaIcEEbRKNSt7__cxx1112basic_stringIT_T0_T1_EEPKS5_
	testb	%al, %al
	jne	.L350
	leaq	176(%rbp), %rax
	movq	%rax, %rcx
	call	_Z17get_platform_nameB5cxx11v
	movl	$1, %edi
	leaq	176(%rbp), %rax
	leaq	.LC23(%rip), %rdx
	movq	%rax, %rcx
	call	_ZSteqIcSt11char_traitsIcESaIcEEbRKNSt7__cxx1112basic_stringIT_T0_T1_EEPKS5_
	testb	%al, %al
	jne	.L350
	leaq	208(%rbp), %rax
	movq	%rax, %rcx
	call	_Z17get_platform_nameB5cxx11v
.LEHE45:
	movl	$1, %r12d
	leaq	208(%rbp), %rax
	leaq	.LC24(%rip), %rdx
	movq	%rax, %rcx
	call	_ZSteqIcSt11char_traitsIcESaIcEEbRKNSt7__cxx1112basic_stringIT_T0_T1_EEPKS5_
	testb	%al, %al
	je	.L351
.L350:
	movl	$1, %r13d
	jmp	.L352
.L351:
	movl	$0, %r13d
.L352:
	testb	%r12b, %r12b
	je	.L353
	leaq	208(%rbp), %rax
	movq	%rax, %rcx
	call	_ZNSt7__cxx1112basic_stringIcSt11char_traitsIcESaIcEED1Ev
.L353:
	testb	%dil, %dil
	je	.L354
	leaq	176(%rbp), %rax
	movq	%rax, %rcx
	call	_ZNSt7__cxx1112basic_stringIcSt11char_traitsIcESaIcEED1Ev
.L354:
	testb	%sil, %sil
	je	.L355
	leaq	144(%rbp), %rax
	movq	%rax, %rcx
	call	_ZNSt7__cxx1112basic_stringIcSt11char_traitsIcESaIcEED1Ev
.L355:
	testb	%bl, %bl
	je	.L356
	leaq	112(%rbp), %rax
	movq	%rax, %rcx
	call	_ZNSt7__cxx1112basic_stringIcSt11char_traitsIcESaIcEED1Ev
.L356:
	testb	%r13b, %r13b
	je	.L357
	leaq	.LC25(%rip), %rcx
	call	getenv
	movq	%rax, %rdx
	leaq	-64(%rbp), %rax
	movq	%rax, %rcx
.LEHB46:
	call	_ZNSt7__cxx1112basic_stringIcSt11char_traitsIcESaIcEEaSEPKc
	leaq	240(%rbp), %rax
	leaq	-64(%rbp), %rdx
	leaq	.LC26(%rip), %r8
	movq	%rax, %rcx
	call	_ZStplIcSt11char_traitsIcESaIcEENSt7__cxx1112basic_stringIT_T0_T1_EERKS8_PKS5_
.LEHE46:
	leaq	240(%rbp), %rdx
	leaq	-96(%rbp), %rax
	movq	%rax, %rcx
	call	_ZNSt7__cxx1112basic_stringIcSt11char_traitsIcESaIcEEaSEOS4_
	leaq	240(%rbp), %rax
	movq	%rax, %rcx
	call	_ZNSt7__cxx1112basic_stringIcSt11char_traitsIcESaIcEED1Ev
	leaq	-96(%rbp), %rax
	movq	%rax, %rdx
	movq	352(%rbp), %rcx
	call	_ZNSt7__cxx1112basic_stringIcSt11char_traitsIcESaIcEEC1EOS4_
	jmp	.L349
.L357:
	leaq	287(%rbp), %rax
	movq	%rax, %rcx
	call	_ZNSaIcEC1Ev
	leaq	287(%rbp), %rax
	movq	%rax, %r8
	leaq	.LC27(%rip), %rdx
	movq	352(%rbp), %rcx
.LEHB47:
	call	_ZNSt7__cxx1112basic_stringIcSt11char_traitsIcESaIcEEC1EPKcRKS3_
.LEHE47:
	nop
	leaq	287(%rbp), %rax
	movq	%rax, %rcx
	call	_ZNSaIcED1Ev
.L349:
	leaq	-96(%rbp), %rax
	movq	%rax, %rcx
	call	_ZNSt7__cxx1112basic_stringIcSt11char_traitsIcESaIcEED1Ev
	leaq	-64(%rbp), %rax
	movq	%rax, %rcx
	call	_ZNSt7__cxx1112basic_stringIcSt11char_traitsIcESaIcEED1Ev
	jmp	.L379
.L373:
	movq	%rax, %rbx
	leaq	-18(%rbp), %rax
	movq	%rax, %rcx
	call	_ZNSaIcED1Ev
	movq	%rbx, %rax
	movq	%rax, %rcx
.LEHB48:
	call	_Unwind_Resume
.L374:
	movq	%rax, %rbx
	leaq	-17(%rbp), %rax
	movq	%rax, %rcx
	call	_ZNSaIcED1Ev
	jmp	.L361
.L375:
	movq	%rax, %r12
	testb	%dil, %dil
	je	.L363
	leaq	48(%rbp), %rax
	movq	%rax, %rcx
	call	_ZNSt7__cxx1112basic_stringIcSt11char_traitsIcESaIcEED1Ev
.L363:
	movq	%r12, %rdi
	testb	%sil, %sil
	je	.L364
	leaq	16(%rbp), %rax
	movq	%rax, %rcx
	call	_ZNSt7__cxx1112basic_stringIcSt11char_traitsIcESaIcEED1Ev
.L364:
	movq	%rdi, %rsi
	testb	%bl, %bl
	je	.L365
	leaq	-16(%rbp), %rax
	movq	%rax, %rcx
	call	_ZNSt7__cxx1112basic_stringIcSt11char_traitsIcESaIcEED1Ev
.L365:
	movq	%rsi, %rbx
	jmp	.L366
.L377:
	movq	%rax, %r13
	testb	%r12b, %r12b
	je	.L368
	leaq	208(%rbp), %rax
	movq	%rax, %rcx
	call	_ZNSt7__cxx1112basic_stringIcSt11char_traitsIcESaIcEED1Ev
.L368:
	movq	%r13, %r12
	testb	%dil, %dil
	je	.L369
	leaq	176(%rbp), %rax
	movq	%rax, %rcx
	call	_ZNSt7__cxx1112basic_stringIcSt11char_traitsIcESaIcEED1Ev
.L369:
	movq	%r12, %rdi
	testb	%sil, %sil
	je	.L370
	leaq	144(%rbp), %rax
	movq	%rax, %rcx
	call	_ZNSt7__cxx1112basic_stringIcSt11char_traitsIcESaIcEED1Ev
.L370:
	movq	%rdi, %rsi
	testb	%bl, %bl
	je	.L371
	leaq	112(%rbp), %rax
	movq	%rax, %rcx
	call	_ZNSt7__cxx1112basic_stringIcSt11char_traitsIcESaIcEED1Ev
.L371:
	movq	%rsi, %rbx
	jmp	.L366
.L378:
	movq	%rax, %rbx
	leaq	287(%rbp), %rax
	movq	%rax, %rcx
	call	_ZNSaIcED1Ev
	jmp	.L366
.L376:
	movq	%rax, %rbx
.L366:
	leaq	-96(%rbp), %rax
	movq	%rax, %rcx
	call	_ZNSt7__cxx1112basic_stringIcSt11char_traitsIcESaIcEED1Ev
.L361:
	leaq	-64(%rbp), %rax
	movq	%rax, %rcx
	call	_ZNSt7__cxx1112basic_stringIcSt11char_traitsIcESaIcEED1Ev
	movq	%rbx, %rax
	movq	%rax, %rcx
	call	_Unwind_Resume
.LEHE48:
.L379:
	movq	352(%rbp), %rax
	addq	$424, %rsp
	popq	%rbx
	popq	%rsi
	popq	%rdi
	popq	%r12
	popq	%r13
	popq	%rbp
	ret
	.seh_handler	__gxx_personality_seh0, @unwind, @except
	.seh_handlerdata
.LLSDA15705:
	.byte	0xff
	.byte	0xff
	.byte	0x1
	.uleb128 .LLSDACSE15705-.LLSDACSB15705
.LLSDACSB15705:
	.uleb128 .LEHB41-.LFB15705
	.uleb128 .LEHE41-.LEHB41
	.uleb128 .L373-.LFB15705
	.uleb128 0
	.uleb128 .LEHB42-.LFB15705
	.uleb128 .LEHE42-.LEHB42
	.uleb128 .L374-.LFB15705
	.uleb128 0
	.uleb128 .LEHB43-.LFB15705
	.uleb128 .LEHE43-.LEHB43
	.uleb128 .L375-.LFB15705
	.uleb128 0
	.uleb128 .LEHB44-.LFB15705
	.uleb128 .LEHE44-.LEHB44
	.uleb128 .L376-.LFB15705
	.uleb128 0
	.uleb128 .LEHB45-.LFB15705
	.uleb128 .LEHE45-.LEHB45
	.uleb128 .L377-.LFB15705
	.uleb128 0
	.uleb128 .LEHB46-.LFB15705
	.uleb128 .LEHE46-.LEHB46
	.uleb128 .L376-.LFB15705
	.uleb128 0
	.uleb128 .LEHB47-.LFB15705
	.uleb128 .LEHE47-.LEHB47
	.uleb128 .L378-.LFB15705
	.uleb128 0
	.uleb128 .LEHB48-.LFB15705
	.uleb128 .LEHE48-.LEHB48
	.uleb128 0
	.uleb128 0
.LLSDACSE15705:
	.text
	.seh_endproc
	.globl	_Z10getmycwdirB5cxx11v
	.def	_Z10getmycwdirB5cxx11v;	.scl	2;	.type	32;	.endef
	.seh_proc	_Z10getmycwdirB5cxx11v
_Z10getmycwdirB5cxx11v:
.LFB15706:
	pushq	%rbp
	.seh_pushreg	%rbp
	pushq	%rbx
	.seh_pushreg	%rbx
	subq	$312, %rsp
	.seh_stackalloc	312
	leaq	128(%rsp), %rbp
	.seh_setframe	%rbp, 128
	.seh_endprologue
	movq	%rcx, 208(%rbp)
	leaq	-96(%rbp), %rax
	movl	$260, %edx
	movq	%rax, %rcx
	movq	__imp__getcwd(%rip), %rax
.LEHB49:
	call	*%rax
.LEHE49:
	leaq	175(%rbp), %rax
	movq	%rax, %rcx
	call	_ZNSaIcEC1Ev
	leaq	175(%rbp), %rdx
	leaq	-96(%rbp), %rax
	movq	%rdx, %r8
	movq	%rax, %rdx
	movq	208(%rbp), %rcx
.LEHB50:
	call	_ZNSt7__cxx1112basic_stringIcSt11char_traitsIcESaIcEEC1EPKcRKS3_
.LEHE50:
	leaq	175(%rbp), %rax
	movq	%rax, %rcx
	call	_ZNSaIcED1Ev
	jmp	.L384
.L383:
	movq	%rax, %rbx
	leaq	175(%rbp), %rax
	movq	%rax, %rcx
	call	_ZNSaIcED1Ev
	movq	%rbx, %rax
	movq	%rax, %rcx
.LEHB51:
	call	_Unwind_Resume
.LEHE51:
.L384:
	movq	208(%rbp), %rax
	addq	$312, %rsp
	popq	%rbx
	popq	%rbp
	ret
	.seh_handler	__gxx_personality_seh0, @unwind, @except
	.seh_handlerdata
.LLSDA15706:
	.byte	0xff
	.byte	0xff
	.byte	0x1
	.uleb128 .LLSDACSE15706-.LLSDACSB15706
.LLSDACSB15706:
	.uleb128 .LEHB49-.LFB15706
	.uleb128 .LEHE49-.LEHB49
	.uleb128 0
	.uleb128 0
	.uleb128 .LEHB50-.LFB15706
	.uleb128 .LEHE50-.LEHB50
	.uleb128 .L383-.LFB15706
	.uleb128 0
	.uleb128 .LEHB51-.LFB15706
	.uleb128 .LEHE51-.LEHB51
	.uleb128 0
	.uleb128 0
.LLSDACSE15706:
	.text
	.seh_endproc
	.globl	gen
	.bss
	.align 32
gen:
	.space 2504
	.globl	_Z5blankB5cxx11
	.align 8
_Z5blankB5cxx11:
	.space 8
	.globl	_Z6bufferB5cxx11
	.align 32
_Z6bufferB5cxx11:
	.space 32
	.globl	_Z5titleB5cxx11
	.align 32
_Z5titleB5cxx11:
	.space 32
	.globl	showstat
	.data
showstat:
	.byte	1
	.globl	_Z8compnameB5cxx11
	.bss
	.align 32
_Z8compnameB5cxx11:
	.space 32
	.globl	_Z7defnameB5cxx11
	.align 32
_Z7defnameB5cxx11:
	.space 32
	.globl	_Z4nameB5cxx11
	.align 32
_Z4nameB5cxx11:
	.space 32
	.globl	maxtries
	.data
	.align 4
maxtries:
	.long	8
	.globl	_Z7desktopB5cxx11
	.bss
	.align 32
_Z7desktopB5cxx11:
	.space 32
	.globl	_Z8filenameB5cxx11
	.align 32
_Z8filenameB5cxx11:
	.space 32
	.globl	_Z7lognameB5cxx11
	.align 32
_Z7lognameB5cxx11:
	.space 32
	.globl	cheatmode
cheatmode:
	.space 1
	.globl	hushmusic
hushmusic:
	.space 1
	.globl	nolog
nolog:
	.space 1
.lcomm _ZL12thisisyouimg,32,32
	.globl	signal_exit_musix_thread
	.align 16
signal_exit_musix_thread:
	.space 24
	.globl	futura
	.align 16
futura:
	.space 16
	.section .rdata,"dr"
	.align 8
.LC28:
	.ascii "What, EXCEPTION because Abigail Saphiro's breast are to fat and your t-strap high heel shoes bow tie is falling off, also your t-strap is torn on your t-strap high heel shoe and also the fact that you are sexy and better destory those flats and high heel and tear the straps on the flats and the high heel and now your bow tie on your t - strap high heel shoes bow tie has fallen off, and they smell horrible as Abigail Spahiro's breast scent and her feet scent combined, P-U, however Abigail Saphiro's feet should be licked by a goat and you better make her breast thicc!\0"
	.section	.text$_ZNK41AbigailSaphiroRuntimeThiccBreastException4whatEv,"x"
	.linkonce discard
	.align 2
	.globl	_ZNK41AbigailSaphiroRuntimeThiccBreastException4whatEv
	.def	_ZNK41AbigailSaphiroRuntimeThiccBreastException4whatEv;	.scl	2;	.type	32;	.endef
	.seh_proc	_ZNK41AbigailSaphiroRuntimeThiccBreastException4whatEv
_ZNK41AbigailSaphiroRuntimeThiccBreastException4whatEv:
.LFB15707:
	pushq	%rbp
	.seh_pushreg	%rbp
	movq	%rsp, %rbp
	.seh_setframe	%rbp, 0
	.seh_endprologue
	movq	%rcx, 16(%rbp)
	leaq	.LC28(%rip), %rax
	popq	%rbp
	ret
	.seh_endproc
	.section	.text$_ZN41AbigailSaphiroRuntimeThiccBreastExceptionC1Ev,"x"
	.linkonce discard
	.align 2
	.globl	_ZN41AbigailSaphiroRuntimeThiccBreastExceptionC1Ev
	.def	_ZN41AbigailSaphiroRuntimeThiccBreastExceptionC1Ev;	.scl	2;	.type	32;	.endef
	.seh_proc	_ZN41AbigailSaphiroRuntimeThiccBreastExceptionC1Ev
_ZN41AbigailSaphiroRuntimeThiccBreastExceptionC1Ev:
.LFB15710:
	pushq	%rbp
	.seh_pushreg	%rbp
	movq	%rsp, %rbp
	.seh_setframe	%rbp, 0
	subq	$32, %rsp
	.seh_stackalloc	32
	.seh_endprologue
	movq	%rcx, 16(%rbp)
	movq	16(%rbp), %rax
	movq	%rax, %rcx
	call	_ZNSt9exceptionC2Ev
	leaq	16+_ZTV41AbigailSaphiroRuntimeThiccBreastException(%rip), %rdx
	movq	16(%rbp), %rax
	movq	%rdx, (%rax)
	nop
	addq	$32, %rsp
	popq	%rbp
	ret
	.seh_endproc
	.globl	ASRTBE
	.bss
	.align 8
ASRTBE:
	.space 8
	.text
	.globl	_Z7randintii
	.def	_Z7randintii;	.scl	2;	.type	32;	.endef
	.seh_proc	_Z7randintii
_Z7randintii:
.LFB15711:
	pushq	%rbp
	.seh_pushreg	%rbp
	movq	%rsp, %rbp
	.seh_setframe	%rbp, 0
	subq	$48, %rsp
	.seh_stackalloc	48
	.seh_endprologue
	movl	%ecx, 16(%rbp)
	movl	%edx, 24(%rbp)
	movl	24(%rbp), %edx
	leaq	-12(%rbp), %rax
	movl	%edx, %r8d
	movl	16(%rbp), %edx
	movq	%rax, %rcx
	call	_ZN5boost6random24uniform_int_distributionIiEC1Eii
	leaq	-12(%rbp), %rax
	leaq	gen(%rip), %rdx
	movq	%rax, %rcx
	call	_ZNK5boost6random24uniform_int_distributionIiEclINS0_23independent_bits_engineINS0_23mersenne_twister_engineIjLy32ELy624ELy397ELy31ELj2567483615ELy11ELj4294967295ELy7ELj2636928640ELy15ELj4022730752ELy18ELj1812433253EEELy256ENS_14multiprecision6numberINS7_8backends15cpp_int_backendILj0ELj0ELNS7_16cpp_integer_typeE1ELNS7_18cpp_int_check_typeE0ESaIyEEELNS7_26expression_template_optionE1EEEEEEEiRT_
	movl	%eax, -4(%rbp)
	movl	-4(%rbp), %eax
	addq	$48, %rsp
	popq	%rbp
	ret
	.seh_endproc
	.section .rdata,"dr"
	.align 8
.LC29:
	.ascii "\33[0;31mKeyboard interrupt dectected, exiting with code \0"
.LC30:
	.ascii ".\0"
	.text
	.globl	_Z23keyboardinterruptsignali
	.def	_Z23keyboardinterruptsignali;	.scl	2;	.type	32;	.endef
	.seh_proc	_Z23keyboardinterruptsignali
_Z23keyboardinterruptsignali:
.LFB15712:
	pushq	%rbp
	.seh_pushreg	%rbp
	movq	%rsp, %rbp
	.seh_setframe	%rbp, 0
	subq	$32, %rsp
	.seh_stackalloc	32
	.seh_endprologue
	movl	%ecx, 16(%rbp)
	movq	.refptr._ZSt4endlIcSt11char_traitsIcEERSt13basic_ostreamIT_T0_ES6_(%rip), %rdx
	movq	.refptr._ZSt4cerr(%rip), %rcx
	call	_ZNSolsEPFRSoS_E
	leaq	.LC29(%rip), %rdx
	movq	%rax, %rcx
	call	_ZStlsISt11char_traitsIcEERSt13basic_ostreamIcT_ES5_PKc
	movl	16(%rbp), %edx
	movq	%rax, %rcx
	call	_ZNSolsEi
	leaq	.LC30(%rip), %rdx
	movq	%rax, %rcx
	call	_ZStlsISt11char_traitsIcEERSt13basic_ostreamIcT_ES5_PKc
	movl	16(%rbp), %ecx
	call	exit
	nop
	.seh_endproc
	.section .rdata,"dr"
	.align 8
.LC31:
	.ascii "\33[0;31mProgram either did an illegal instruction or Another program sent a termination request to this program, exiting with code \0"
	.text
	.globl	_Z17programtermsignali
	.def	_Z17programtermsignali;	.scl	2;	.type	32;	.endef
	.seh_proc	_Z17programtermsignali
_Z17programtermsignali:
.LFB15713:
	pushq	%rbp
	.seh_pushreg	%rbp
	movq	%rsp, %rbp
	.seh_setframe	%rbp, 0
	subq	$32, %rsp
	.seh_stackalloc	32
	.seh_endprologue
	movl	%ecx, 16(%rbp)
	movq	.refptr._ZSt4endlIcSt11char_traitsIcEERSt13basic_ostreamIT_T0_ES6_(%rip), %rdx
	movq	.refptr._ZSt4cerr(%rip), %rcx
	call	_ZNSolsEPFRSoS_E
	leaq	.LC31(%rip), %rdx
	movq	%rax, %rcx
	call	_ZStlsISt11char_traitsIcEERSt13basic_ostreamIcT_ES5_PKc
	movl	16(%rbp), %edx
	movq	%rax, %rcx
	call	_ZNSolsEi
	leaq	.LC30(%rip), %rdx
	movq	%rax, %rcx
	call	_ZStlsISt11char_traitsIcEERSt13basic_ostreamIcT_ES5_PKc
	movl	16(%rbp), %ecx
	call	exit
	nop
	.seh_endproc
	.section .rdata,"dr"
	.align 8
.LC32:
	.ascii "\33[0;31mEither the program hung up or the controlling terminal got terminated\0"
	.text
	.globl	_Z14termexitsignali
	.def	_Z14termexitsignali;	.scl	2;	.type	32;	.endef
	.seh_proc	_Z14termexitsignali
_Z14termexitsignali:
.LFB15714:
	pushq	%rbp
	.seh_pushreg	%rbp
	movq	%rsp, %rbp
	.seh_setframe	%rbp, 0
	subq	$32, %rsp
	.seh_stackalloc	32
	.seh_endprologue
	movl	%ecx, 16(%rbp)
	movq	.refptr._ZSt4endlIcSt11char_traitsIcEERSt13basic_ostreamIT_T0_ES6_(%rip), %rdx
	movq	.refptr._ZSt4cerr(%rip), %rcx
	call	_ZNSolsEPFRSoS_E
	leaq	.LC32(%rip), %rdx
	movq	%rax, %rcx
	call	_ZStlsISt11char_traitsIcEERSt13basic_ostreamIcT_ES5_PKc
	nop
	addq	$32, %rsp
	popq	%rbp
	ret
	.seh_endproc
	.section .rdata,"dr"
.LC33:
	.ascii "Usage: \0"
.LC34:
	.ascii " <option(s)> SOURCES\12\0"
.LC35:
	.ascii "Options:\12\0"
	.align 8
.LC36:
	.ascii "\11-h,--help\11\11Show this help message\12\0"
	.align 8
.LC37:
	.ascii "\11-ns, --NOSTAT\11\11No stat writting prompt\12\0"
	.align 8
.LC38:
	.ascii "\11-nl, --NOLOG, --NOLOGGING\11\11No logs written\12\0"
	.align 8
.LC39:
	.ascii "\11-fn, --FILENAME\11\11The name of the file, special usage: -(fn/--FILENAME) <name of the file>\12\0"
	.align 8
.LC40:
	.ascii "\11-ln, --LOGNAME\11\11The name of log file, special usage: like -fn but replace (-fn/--FILENAME) with (-ln/--LOGNAME)\12\0"
	.align 8
.LC41:
	.ascii "\11-nm, --NOMUSIX, --NOMUSIC\11\11Disable music\12\0"
	.align 8
.LC42:
	.ascii "\11Visit https://github.com/MXP2095onetechguy/Xombies-and-Nambaz for the code\12\0"
	.align 8
.LC43:
	.ascii "\11Visit https://github.com/MXP2095onetechguy/Xombies-and-Nambaz/wiki wiki for the documentation\12\0"
	.text
	.def	_ZL10show_usageNSt7__cxx1112basic_stringIcSt11char_traitsIcESaIcEEE;	.scl	3;	.type	32;	.endef
	.seh_proc	_ZL10show_usageNSt7__cxx1112basic_stringIcSt11char_traitsIcESaIcEEE
_ZL10show_usageNSt7__cxx1112basic_stringIcSt11char_traitsIcESaIcEEE:
.LFB15715:
	pushq	%rbp
	.seh_pushreg	%rbp
	movq	%rsp, %rbp
	.seh_setframe	%rbp, 0
	subq	$32, %rsp
	.seh_stackalloc	32
	.seh_endprologue
	movq	%rcx, 16(%rbp)
	leaq	.LC33(%rip), %rdx
	movq	.refptr._ZSt4cout(%rip), %rcx
	call	_ZStlsISt11char_traitsIcEERSt13basic_ostreamIcT_ES5_PKc
	movq	16(%rbp), %rdx
	movq	%rax, %rcx
	call	_ZStlsIcSt11char_traitsIcESaIcEERSt13basic_ostreamIT_T0_ES7_RKNSt7__cxx1112basic_stringIS4_S5_T1_EE
	leaq	.LC34(%rip), %rdx
	movq	%rax, %rcx
	call	_ZStlsISt11char_traitsIcEERSt13basic_ostreamIcT_ES5_PKc
	leaq	.LC35(%rip), %rdx
	movq	%rax, %rcx
	call	_ZStlsISt11char_traitsIcEERSt13basic_ostreamIcT_ES5_PKc
	leaq	.LC36(%rip), %rdx
	movq	%rax, %rcx
	call	_ZStlsISt11char_traitsIcEERSt13basic_ostreamIcT_ES5_PKc
	leaq	.LC37(%rip), %rdx
	movq	%rax, %rcx
	call	_ZStlsISt11char_traitsIcEERSt13basic_ostreamIcT_ES5_PKc
	leaq	.LC38(%rip), %rdx
	movq	%rax, %rcx
	call	_ZStlsISt11char_traitsIcEERSt13basic_ostreamIcT_ES5_PKc
	leaq	.LC39(%rip), %rdx
	movq	%rax, %rcx
	call	_ZStlsISt11char_traitsIcEERSt13basic_ostreamIcT_ES5_PKc
	leaq	.LC40(%rip), %rdx
	movq	%rax, %rcx
	call	_ZStlsISt11char_traitsIcEERSt13basic_ostreamIcT_ES5_PKc
	leaq	.LC41(%rip), %rdx
	movq	%rax, %rcx
	call	_ZStlsISt11char_traitsIcEERSt13basic_ostreamIcT_ES5_PKc
	leaq	.LC42(%rip), %rdx
	movq	%rax, %rcx
	call	_ZStlsISt11char_traitsIcEERSt13basic_ostreamIcT_ES5_PKc
	leaq	.LC43(%rip), %rdx
	movq	%rax, %rcx
	call	_ZStlsISt11char_traitsIcEERSt13basic_ostreamIcT_ES5_PKc
	movq	.refptr._ZSt4endlIcSt11char_traitsIcEERSt13basic_ostreamIT_T0_ES6_(%rip), %rdx
	movq	%rax, %rcx
	call	_ZNSolsEPFRSoS_E
	nop
	addq	$32, %rsp
	popq	%rbp
	ret
	.seh_endproc
	.globl	_Z20whatisthetimeanddateB5cxx11v
	.def	_Z20whatisthetimeanddateB5cxx11v;	.scl	2;	.type	32;	.endef
	.seh_proc	_Z20whatisthetimeanddateB5cxx11v
_Z20whatisthetimeanddateB5cxx11v:
.LFB15716:
	pushq	%rbp
	.seh_pushreg	%rbp
	pushq	%rbx
	.seh_pushreg	%rbx
	subq	$72, %rsp
	.seh_stackalloc	72
	leaq	128(%rsp), %rbp
	.seh_setframe	%rbp, 128
	.seh_endprologue
	movq	%rcx, -32(%rbp)
	call	_ZNSt6chrono3_V212system_clock3nowEv
	movq	%rax, -80(%rbp)
	leaq	-80(%rbp), %rax
	movq	%rax, %rcx
	call	_ZNSt6chrono3_V212system_clock9to_time_tERKNS_10time_pointIS1_NS_8durationIxSt5ratioILx1ELx1000000000EEEEEE
	movq	%rax, -88(%rbp)
	leaq	-65(%rbp), %rax
	movq	%rax, %rcx
	call	_ZNSaIcEC1Ev
	leaq	-88(%rbp), %rax
	movq	%rax, %rcx
.LEHB52:
	call	ctime
	leaq	-65(%rbp), %rdx
	movq	%rdx, %r8
	movq	%rax, %rdx
	movq	-32(%rbp), %rcx
	call	_ZNSt7__cxx1112basic_stringIcSt11char_traitsIcESaIcEEC1EPKcRKS3_
.LEHE52:
	leaq	-65(%rbp), %rax
	movq	%rax, %rcx
	call	_ZNSaIcED1Ev
	jmp	.L398
.L397:
	movq	%rax, %rbx
	leaq	-65(%rbp), %rax
	movq	%rax, %rcx
	call	_ZNSaIcED1Ev
	movq	%rbx, %rax
	movq	%rax, %rcx
.LEHB53:
	call	_Unwind_Resume
.LEHE53:
.L398:
	movq	-32(%rbp), %rax
	addq	$72, %rsp
	popq	%rbx
	popq	%rbp
	ret
	.seh_handler	__gxx_personality_seh0, @unwind, @except
	.seh_handlerdata
.LLSDA15716:
	.byte	0xff
	.byte	0xff
	.byte	0x1
	.uleb128 .LLSDACSE15716-.LLSDACSB15716
.LLSDACSB15716:
	.uleb128 .LEHB52-.LFB15716
	.uleb128 .LEHE52-.LEHB52
	.uleb128 .L397-.LFB15716
	.uleb128 0
	.uleb128 .LEHB53-.LFB15716
	.uleb128 .LEHE53-.LEHB53
	.uleb128 0
	.uleb128 0
.LLSDACSE15716:
	.text
	.seh_endproc
	.globl	_Z3BELv
	.def	_Z3BELv;	.scl	2;	.type	32;	.endef
	.seh_proc	_Z3BELv
_Z3BELv:
.LFB15717:
	pushq	%rbp
	.seh_pushreg	%rbp
	movq	%rsp, %rbp
	.seh_setframe	%rbp, 0
	subq	$32, %rsp
	.seh_stackalloc	32
	.seh_endprologue
	movl	$100, %edx
	movl	$1000, %ecx
	call	_Z4beepii
	nop
	addq	$32, %rsp
	popq	%rbp
	ret
	.seh_endproc
	.globl	_Z3DETv
	.def	_Z3DETv;	.scl	2;	.type	32;	.endef
	.seh_proc	_Z3DETv
_Z3DETv:
.LFB15718:
	pushq	%rbp
	.seh_pushreg	%rbp
	movq	%rsp, %rbp
	.seh_setframe	%rbp, 0
	subq	$32, %rsp
	.seh_stackalloc	32
	.seh_endprologue
	movl	$55, %edx
	movl	$500, %ecx
	call	_Z4beepii
	nop
	addq	$32, %rsp
	popq	%rbp
	ret
	.seh_endproc
	.globl	_Z5musicSt6futureIvE
	.def	_Z5musicSt6futureIvE;	.scl	2;	.type	32;	.endef
	.seh_proc	_Z5musicSt6futureIvE
_Z5musicSt6futureIvE:
.LFB15719:
	pushq	%rbp
	.seh_pushreg	%rbp
	pushq	%rbx
	.seh_pushreg	%rbx
	subq	$88, %rsp
	.seh_stackalloc	88
	leaq	128(%rsp), %rbp
	.seh_setframe	%rbp, 128
	.seh_endprologue
	movq	%rcx, -16(%rbp)
.L403:
	movq	-16(%rbp), %rbx
	movl	$1, -84(%rbp)
	leaq	-84(%rbp), %rdx
	leaq	-96(%rbp), %rax
	movq	%rax, %rcx
	call	_ZNSt6chrono8durationIxSt5ratioILx1ELx1000EEEC1IivEERKT_
	leaq	-96(%rbp), %rax
	movq	%rax, %rdx
	movq	%rbx, %rcx
	call	_ZNKSt14__basic_futureIvE8wait_forIxSt5ratioILx1ELx1000EEEESt13future_statusRKNSt6chrono8durationIT_T0_EE
	cmpl	$1, %eax
	sete	%al
	testb	%al, %al
	je	.L402
	movl	$500, %edx
	movl	$500, %ecx
	call	_Z4beepii
	movl	$250, %edx
	movl	$575, %ecx
	call	_Z4beepii
	movl	$250, %edx
	movl	$525, %ecx
	call	_Z4beepii
	movl	$750, %edx
	movl	$500, %ecx
	call	_Z4beepii
	movl	$750, %edx
	movl	$400, %ecx
	call	_Z4beepii
	movl	$500, %edx
	movl	$500, %ecx
	call	_Z4beepii
	movl	$1000, -68(%rbp)
	leaq	-68(%rbp), %rdx
	leaq	-80(%rbp), %rax
	movq	%rax, %rcx
	call	_ZNSt6chrono8durationIxSt5ratioILx1ELx1000EEEC1IivEERKT_
	leaq	-80(%rbp), %rax
	movq	%rax, %rcx
	call	_ZNSt11this_thread9sleep_forIxSt5ratioILx1ELx1000EEEEvRKNSt6chrono8durationIT_T0_EE
	movl	$7, %edx
	movq	.refptr._ZSt4cout(%rip), %rcx
	call	_ZStlsISt11char_traitsIcEERSt13basic_ostreamIcT_ES5_c
	movl	$1500, -52(%rbp)
	leaq	-52(%rbp), %rdx
	leaq	-64(%rbp), %rax
	movq	%rax, %rcx
	call	_ZNSt6chrono8durationIxSt5ratioILx1ELx1000EEEC1IivEERKT_
	leaq	-64(%rbp), %rax
	movq	%rax, %rcx
	call	_ZNSt11this_thread9sleep_forIxSt5ratioILx1ELx1000EEEEvRKNSt6chrono8durationIT_T0_EE
	jmp	.L403
.L402:
	movl	$0, %eax
	addq	$88, %rsp
	popq	%rbx
	popq	%rbp
	ret
	.seh_endproc
	.section	.text$_ZNSt12_Vector_baseINSt7__cxx1112basic_stringIcSt11char_traitsIcESaIcEEESaIS5_EE12_Vector_implD1Ev,"x"
	.linkonce discard
	.align 2
	.globl	_ZNSt12_Vector_baseINSt7__cxx1112basic_stringIcSt11char_traitsIcESaIcEEESaIS5_EE12_Vector_implD1Ev
	.def	_ZNSt12_Vector_baseINSt7__cxx1112basic_stringIcSt11char_traitsIcESaIcEEESaIS5_EE12_Vector_implD1Ev;	.scl	2;	.type	32;	.endef
	.seh_proc	_ZNSt12_Vector_baseINSt7__cxx1112basic_stringIcSt11char_traitsIcESaIcEEESaIS5_EE12_Vector_implD1Ev
_ZNSt12_Vector_baseINSt7__cxx1112basic_stringIcSt11char_traitsIcESaIcEEESaIS5_EE12_Vector_implD1Ev:
.LFB15726:
	pushq	%rbp
	.seh_pushreg	%rbp
	movq	%rsp, %rbp
	.seh_setframe	%rbp, 0
	subq	$32, %rsp
	.seh_stackalloc	32
	.seh_endprologue
	movq	%rcx, 16(%rbp)
	movq	16(%rbp), %rcx
	call	_ZNSaINSt7__cxx1112basic_stringIcSt11char_traitsIcESaIcEEEED2Ev
	nop
	addq	$32, %rsp
	popq	%rbp
	ret
	.seh_endproc
	.section	.text$_ZNSt12_Vector_baseINSt7__cxx1112basic_stringIcSt11char_traitsIcESaIcEEESaIS5_EEC2Ev,"x"
	.linkonce discard
	.align 2
	.globl	_ZNSt12_Vector_baseINSt7__cxx1112basic_stringIcSt11char_traitsIcESaIcEEESaIS5_EEC2Ev
	.def	_ZNSt12_Vector_baseINSt7__cxx1112basic_stringIcSt11char_traitsIcESaIcEEESaIS5_EEC2Ev;	.scl	2;	.type	32;	.endef
	.seh_proc	_ZNSt12_Vector_baseINSt7__cxx1112basic_stringIcSt11char_traitsIcESaIcEEESaIS5_EEC2Ev
_ZNSt12_Vector_baseINSt7__cxx1112basic_stringIcSt11char_traitsIcESaIcEEESaIS5_EEC2Ev:
.LFB15727:
	pushq	%rbp
	.seh_pushreg	%rbp
	movq	%rsp, %rbp
	.seh_setframe	%rbp, 0
	subq	$32, %rsp
	.seh_stackalloc	32
	.seh_endprologue
	movq	%rcx, 16(%rbp)
	movq	16(%rbp), %rax
	movq	%rax, %rcx
	call	_ZNSt12_Vector_baseINSt7__cxx1112basic_stringIcSt11char_traitsIcESaIcEEESaIS5_EE12_Vector_implC1Ev
	nop
	addq	$32, %rsp
	popq	%rbp
	ret
	.seh_endproc
	.section	.text$_ZNSt6vectorINSt7__cxx1112basic_stringIcSt11char_traitsIcESaIcEEESaIS5_EEC1Ev,"x"
	.linkonce discard
	.align 2
	.globl	_ZNSt6vectorINSt7__cxx1112basic_stringIcSt11char_traitsIcESaIcEEESaIS5_EEC1Ev
	.def	_ZNSt6vectorINSt7__cxx1112basic_stringIcSt11char_traitsIcESaIcEEESaIS5_EEC1Ev;	.scl	2;	.type	32;	.endef
	.seh_proc	_ZNSt6vectorINSt7__cxx1112basic_stringIcSt11char_traitsIcESaIcEEESaIS5_EEC1Ev
_ZNSt6vectorINSt7__cxx1112basic_stringIcSt11char_traitsIcESaIcEEESaIS5_EEC1Ev:
.LFB15730:
	pushq	%rbp
	.seh_pushreg	%rbp
	movq	%rsp, %rbp
	.seh_setframe	%rbp, 0
	subq	$32, %rsp
	.seh_stackalloc	32
	.seh_endprologue
	movq	%rcx, 16(%rbp)
	movq	16(%rbp), %rax
	movq	%rax, %rcx
	call	_ZNSt12_Vector_baseINSt7__cxx1112basic_stringIcSt11char_traitsIcESaIcEEESaIS5_EEC2Ev
	nop
	addq	$32, %rsp
	popq	%rbp
	ret
	.seh_endproc
	.section	.text$_ZN41AbigailSaphiroRuntimeThiccBreastExceptionC1ERKS_,"x"
	.linkonce discard
	.align 2
	.globl	_ZN41AbigailSaphiroRuntimeThiccBreastExceptionC1ERKS_
	.def	_ZN41AbigailSaphiroRuntimeThiccBreastExceptionC1ERKS_;	.scl	2;	.type	32;	.endef
	.seh_proc	_ZN41AbigailSaphiroRuntimeThiccBreastExceptionC1ERKS_
_ZN41AbigailSaphiroRuntimeThiccBreastExceptionC1ERKS_:
.LFB15733:
	pushq	%rbp
	.seh_pushreg	%rbp
	movq	%rsp, %rbp
	.seh_setframe	%rbp, 0
	subq	$32, %rsp
	.seh_stackalloc	32
	.seh_endprologue
	movq	%rcx, 16(%rbp)
	movq	%rdx, 24(%rbp)
	movq	16(%rbp), %rax
	movq	24(%rbp), %rdx
	movq	%rax, %rcx
	call	_ZNSt9exceptionC2ERKS_
	leaq	16+_ZTV41AbigailSaphiroRuntimeThiccBreastException(%rip), %rdx
	movq	16(%rbp), %rax
	movq	%rdx, (%rax)
	nop
	addq	$32, %rsp
	popq	%rbp
	ret
	.seh_endproc
	.section	.text$_ZNSt16invalid_argumentC1ERKS_,"x"
	.linkonce discard
	.align 2
	.globl	_ZNSt16invalid_argumentC1ERKS_
	.def	_ZNSt16invalid_argumentC1ERKS_;	.scl	2;	.type	32;	.endef
	.seh_proc	_ZNSt16invalid_argumentC1ERKS_
_ZNSt16invalid_argumentC1ERKS_:
.LFB15736:
	pushq	%rbp
	.seh_pushreg	%rbp
	movq	%rsp, %rbp
	.seh_setframe	%rbp, 0
	subq	$32, %rsp
	.seh_stackalloc	32
	.seh_endprologue
	movq	%rcx, 16(%rbp)
	movq	%rdx, 24(%rbp)
	movq	16(%rbp), %rax
	movq	24(%rbp), %rdx
	movq	%rax, %rcx
	call	_ZNSt11logic_errorC2ERKS_
	movq	.refptr._ZTVSt16invalid_argument(%rip), %rax
	leaq	16(%rax), %rdx
	movq	16(%rbp), %rax
	movq	%rdx, (%rax)
	nop
	addq	$32, %rsp
	popq	%rbp
	ret
	.seh_endproc
	.def	__main;	.scl	2;	.type	32;	.endef
	.section .rdata,"dr"
.LC44:
	.ascii "SWOSH\0"
.LC45:
	.ascii "POW\0"
.LC46:
	.ascii "PEW\0"
.LC47:
	.ascii "CLANG\0"
.LC48:
	.ascii "CLASH\0"
.LC49:
	.ascii "BANG\0"
.LC50:
	.ascii "-h\0"
.LC51:
	.ascii "--help\0"
.LC52:
	.ascii "-ns\0"
.LC53:
	.ascii "--NOSTAT\0"
.LC54:
	.ascii "-fn\0"
.LC55:
	.ascii "--FILENAME\0"
	.align 8
.LC56:
	.ascii "\33[0;31mFilename expected after -fn or --FILENAME\0"
.LC57:
	.ascii "-nm\0"
.LC58:
	.ascii "--NOMUSIX\0"
.LC59:
	.ascii "--NOMUSIC\0"
.LC60:
	.ascii "-nl\0"
.LC61:
	.ascii "--NOLOG\0"
.LC62:
	.ascii "--NOLOGGING\0"
.LC63:
	.ascii "-ln\0"
.LC64:
	.ascii "--LOGNAME\0"
	.align 8
.LC65:
	.ascii "\33[0;31mFilename expected after -ln or --LOGNAME\0"
.LC66:
	.ascii "color 02\0"
.LC67:
	.ascii "\33]2;\0"
.LC68:
	.ascii "\7\0"
.LC69:
	.ascii "\33[0;32mWelcome to \0"
	.align 8
.LC70:
	.ascii "Press enter to get started. Type [EXIT or exit] to exit,\0"
	.align 8
.LC71:
	.ascii "maybe do a keyboard interrupt anytime you want to also exit\0"
.LC72:
	.ascii "exit\0"
.LC73:
	.ascii "EXIT\0"
.LC74:
	.ascii "What is your name?\0"
.LC75:
	.ascii "int main(int, char**)\0"
.LC76:
	.ascii "No name entered.\0"
.LC77:
	.ascii "This is you\0"
.LC78:
	.ascii "Andry Lie\0"
.LC79:
	.ascii "andry lie\0"
.LC80:
	.ascii "Andry lie\0"
.LC81:
	.ascii "andry Lie\0"
.LC82:
	.ascii "Cheat mode activated\0"
.LC83:
	.ascii "cheater\0"
.LC84:
	.ascii "Ok \0"
	.align 8
.LC85:
	.ascii ", How many zombies do you want to fight?\0"
	.align 8
.LC86:
	.ascii "You fight by guessing numbers to train yourself and increase your skill!\0"
	.align 8
.LC87:
	.ascii "If you guess corectly and you killed the zombie, you win and get to live another day and fight again with another zombie!\0"
	.align 8
.LC88:
	.ascii "You lose and you are DED, no more fighting.\0"
	.align 8
.LC89:
	.ascii "You lose by running out of tries in the guessing game or losing to a zombie with a higher skill level.\0"
	.align 8
.LC90:
	.ascii "You win by killinng the zombie and you can increase the change if winning by guessing correctly with as little mistake as possible.\0"
	.align 8
.LC91:
	.ascii "Your score and skill is multiplied depending on how much zombies you want to fight\0"
.LC92:
	.ascii "Fight Fight Fight \0"
.LC93:
	.ascii "!\0"
.LC94:
	.ascii "My number is between \0"
.LC95:
	.ascii " and \0"
.LC96:
	.ascii "You have \0"
.LC97:
	.ascii " tries\0"
.LC98:
	.ascii "This is your last chance!\0"
.LC99:
	.ascii "Too low.\0"
.LC100:
	.ascii "Too high.\0"
.LC101:
	.ascii "Good.\0"
	.align 8
.LC102:
	.ascii "Here comes some strong boy zombie!\0"
.LC103:
	.ascii "Here comes some zombie!\0"
.LC104:
	.ascii "You got some weak zombie!\0"
.LC105:
	.ascii "What zombie?\0"
	.align 8
.LC106:
	.ascii "You have a chance for bonus skill level, would you like it? 1 for yes, other for no\0"
	.align 8
.LC107:
	.ascii " levels added to your skill level, now your skill level is at \0"
.LC108:
	.ascii "alright, this is rare\0"
.LC109:
	.ascii "Fighting with \0"
.LC110:
	.ascii "...\0"
.LC111:
	.ascii "Zombie is wasted.\0"
.LC112:
	.ascii "That must have hurt!\0"
.LC113:
	.ascii "You killed the zombie!\0"
	.align 8
.LC114:
	.ascii "You killed the zombie, but suffered injuries, no skill level for you then.\0"
	.align 8
.LC115:
	.ascii "You killed the zombie, What. No skill level for you then.\0"
	.align 8
.LC116:
	.ascii "The zombie just died of a sudden heart attack, stealing your skill level.\0"
.LC117:
	.ascii "You went home, \0"
	.align 8
.LC118:
	.ascii ", but do you want to fight again, or end it.\0"
	.align 8
.LC119:
	.ascii "Here is your stats so far,  score: \0"
.LC120:
	.ascii ", zombie army killed : \0"
.LC121:
	.ascii ", zombie count: \0"
.LC122:
	.ascii "end for ending the game. \0"
.LC123:
	.ascii "fight for fighting again. \0"
.LC124:
	.ascii "end\0"
.LC125:
	.ascii "fight\0"
.LC126:
	.ascii "Say what?\0"
.LC127:
	.ascii "You survived, \0"
.LC128:
	.ascii "! \0"
	.align 8
.LC129:
	.ascii ", you R DED from the guessing part. \0"
	.align 8
.LC130:
	.ascii ", you R DED from the zombies. \0"
.LC131:
	.ascii "Final Stats played at \0"
.LC132:
	.ascii "Player Name:\0"
.LC133:
	.ascii "Final score: \0"
	.align 8
.LC134:
	.ascii "Final amout of zombies killed: \0"
.LC135:
	.ascii "Final skill level: \0"
.LC136:
	.ascii "Final zombie count: \0"
	.align 8
.LC137:
	.ascii "Would you like your Final Stats be written to a file?\0"
	.align 8
.LC138:
	.ascii "Yes for writing, No for not writting. \0"
.LC139:
	.ascii "yes\0"
	.align 8
.LC140:
	.ascii "Are you sure, you want to do this, the same file, \0"
	.align 8
.LC141:
	.ascii " already exist, This action will overwrite the file.  Yes for confirm overwritting, No or other for cancel\0"
.LC142:
	.ascii "OK then\0"
	.align 8
.LC143:
	.ascii "Seems safe, I don't see any file named \0"
	.align 8
.LC144:
	.ascii ", But do you want to stay safe than sorry? Yes for sorry, but proud, or (either you choose no or other) for the safe.\0"
	.align 8
.LC145:
	.ascii "\33[0;32mWritting to file, please don't close the game.\0"
.LC146:
	.ascii "DEDed by zombies.\0"
	.align 8
.LC147:
	.ascii "DEDed for running out of tries when guessing. WHAT!\0"
.LC148:
	.ascii "Alive and Fine\0"
.LC149:
	.ascii "Unknown\0"
	.align 8
.LC150:
	.ascii "\33[0;31mUnknown file openning error occured\0"
.LC151:
	.ascii "File error, the code is \0"
	.align 8
.LC152:
	.ascii "=========================================\0"
.LC153:
	.ascii "Player Name: \0"
.LC154:
	.ascii "Status: \0"
.LC155:
	.ascii "In cheat mode: \0"
.LC156:
	.ascii "Final skill level of player: \0"
.LC157:
	.ascii "Final skill level of zombie: \0"
.LC158:
	.ascii "\33[0;32mFile writting is done\0"
.LC159:
	.ascii "no\0"
.LC160:
	.ascii "No file writting is done\0"
	.align 8
.LC161:
	.ascii "\33[0;32mYou can safely exit the game. \0"
.LC162:
	.ascii "Give me only numbers\0"
	.align 8
.LC163:
	.ascii "Trololololo, you should never put that.\0"
.LC164:
	.ascii "exception.\0"
	.align 8
.LC165:
	.ascii "Exception dectected, input again\0"
	.text
	.globl	main
	.def	main;	.scl	2;	.type	32;	.endef
	.seh_proc	main
main:
.LFB15720:
	pushq	%rbp
	.seh_pushreg	%rbp
	pushq	%r12
	.seh_pushreg	%r12
	pushq	%rdi
	.seh_pushreg	%rdi
	pushq	%rsi
	.seh_pushreg	%rsi
	pushq	%rbx
	.seh_pushreg	%rbx
	subq	$3856, %rsp
	.seh_stackalloc	3856
	leaq	128(%rsp), %rbp
	.seh_setframe	%rbp, 128
	.seh_endprologue
	movl	%ecx, 3776(%rbp)
	movq	%rdx, 3784(%rbp)
	call	__main
	movl	$0, 3724(%rbp)
	movl	maxtries(%rip), %eax
	movl	%eax, 3720(%rbp)
	movl	$68, 3716(%rbp)
	movl	$70, %edx
	movl	$68, %ecx
.LEHB54:
	call	_Z7randintii
.LEHE54:
	movl	%eax, 3712(%rbp)
	movl	$20, 3684(%rbp)
	movl	$0, 3680(%rbp)
	movl	$0, 3708(%rbp)
	movl	$0, 3676(%rbp)
	movl	$0, 3704(%rbp)
	movl	$0, 3700(%rbp)
	leaq	1136(%rbp), %rsi
	movl	$5, %ebx
	leaq	1336(%rbp), %rax
	movq	%rax, %rcx
	call	_ZNSaIcEC1Ev
	leaq	1336(%rbp), %rax
	movq	%rax, %r8
	leaq	.LC44(%rip), %rdx
	movq	%rsi, %rcx
.LEHB55:
	call	_ZNSt7__cxx1112basic_stringIcSt11char_traitsIcESaIcEEC1EPKcRKS3_
.LEHE55:
	leaq	1336(%rbp), %rax
	movq	%rax, %rcx
	call	_ZNSaIcED1Ev
	leaq	32(%rsi), %r12
	subq	$1, %rbx
	leaq	1337(%rbp), %rax
	movq	%rax, %rcx
	call	_ZNSaIcEC1Ev
	leaq	1337(%rbp), %rax
	movq	%rax, %r8
	leaq	.LC45(%rip), %rdx
	movq	%r12, %rcx
.LEHB56:
	call	_ZNSt7__cxx1112basic_stringIcSt11char_traitsIcESaIcEEC1EPKcRKS3_
.LEHE56:
	leaq	1337(%rbp), %rax
	movq	%rax, %rcx
	call	_ZNSaIcED1Ev
	addq	$32, %r12
	subq	$1, %rbx
	leaq	1338(%rbp), %rax
	movq	%rax, %rcx
	call	_ZNSaIcEC1Ev
	leaq	1338(%rbp), %rax
	movq	%rax, %r8
	leaq	.LC46(%rip), %rdx
	movq	%r12, %rcx
.LEHB57:
	call	_ZNSt7__cxx1112basic_stringIcSt11char_traitsIcESaIcEEC1EPKcRKS3_
.LEHE57:
	leaq	1338(%rbp), %rax
	movq	%rax, %rcx
	call	_ZNSaIcED1Ev
	addq	$32, %r12
	subq	$1, %rbx
	leaq	1339(%rbp), %rax
	movq	%rax, %rcx
	call	_ZNSaIcEC1Ev
	leaq	1339(%rbp), %rax
	movq	%rax, %r8
	leaq	.LC47(%rip), %rdx
	movq	%r12, %rcx
.LEHB58:
	call	_ZNSt7__cxx1112basic_stringIcSt11char_traitsIcESaIcEEC1EPKcRKS3_
.LEHE58:
	leaq	1339(%rbp), %rax
	movq	%rax, %rcx
	call	_ZNSaIcED1Ev
	addq	$32, %r12
	subq	$1, %rbx
	leaq	1340(%rbp), %rax
	movq	%rax, %rcx
	call	_ZNSaIcEC1Ev
	leaq	1340(%rbp), %rax
	movq	%rax, %r8
	leaq	.LC48(%rip), %rdx
	movq	%r12, %rcx
.LEHB59:
	call	_ZNSt7__cxx1112basic_stringIcSt11char_traitsIcESaIcEEC1EPKcRKS3_
.LEHE59:
	leaq	1340(%rbp), %rax
	movq	%rax, %rcx
	call	_ZNSaIcED1Ev
	addq	$32, %r12
	subq	$1, %rbx
	leaq	1341(%rbp), %rax
	movq	%rax, %rcx
	call	_ZNSaIcEC1Ev
	leaq	1341(%rbp), %rax
	movq	%rax, %r8
	leaq	.LC49(%rip), %rdx
	movq	%r12, %rcx
.LEHB60:
	call	_ZNSt7__cxx1112basic_stringIcSt11char_traitsIcESaIcEEC1EPKcRKS3_
.LEHE60:
	leaq	1341(%rbp), %rax
	movq	%rax, %rcx
	call	_ZNSaIcED1Ev
	movl	$6, 3672(%rbp)
	leaq	1342(%rbp), %rax
	movq	%rax, %rcx
	call	_ZNSaIcEC1Ev
	leaq	1342(%rbp), %rdx
	leaq	1104(%rbp), %rax
	movq	%rdx, %r8
	leaq	.LC16(%rip), %rdx
	movq	%rax, %rcx
.LEHB61:
	call	_ZNSt7__cxx1112basic_stringIcSt11char_traitsIcESaIcEEC1EPKcRKS3_
.LEHE61:
	leaq	1342(%rbp), %rax
	movq	%rax, %rcx
	call	_ZNSaIcED1Ev
	movb	$0, 3699(%rbp)
.LEHB62:
	call	_Z3BELv
.LEHE62:
	leaq	_Z23keyboardinterruptsignali(%rip), %rdx
	movl	$22, %ecx
	call	signal
	leaq	_Z23keyboardinterruptsignali(%rip), %rdx
	movl	$2, %ecx
	call	signal
	leaq	_Z17programtermsignali(%rip), %rdx
	movl	$4, %ecx
	call	signal
	leaq	_Z17programtermsignali(%rip), %rdx
	movl	$15, %ecx
	call	signal
	cmpl	$1, 3776(%rbp)
	jle	.L411
	leaq	1024(%rbp), %rax
	movq	%rax, %rcx
	call	_ZNSt6vectorINSt7__cxx1112basic_stringIcSt11char_traitsIcESaIcEEESaIS5_EEC1Ev
	leaq	-32(%rbp), %rax
	movq	%rax, %rcx
	call	_ZNSt7__cxx1112basic_stringIcSt11char_traitsIcESaIcEEC1Ev
	movl	$1, 3692(%rbp)
.L446:
	movl	3692(%rbp), %eax
	cmpl	3776(%rbp), %eax
	jge	.L412
	leaq	1343(%rbp), %rax
	movq	%rax, %rcx
	call	_ZNSaIcEC1Ev
	movl	3692(%rbp), %eax
	cltq
	leaq	0(,%rax,8), %rdx
	movq	3784(%rbp), %rax
	addq	%rdx, %rax
	movq	(%rax), %rdx
	leaq	1343(%rbp), %rcx
	movq	%rbp, %rax
	movq	%rcx, %r8
	movq	%rax, %rcx
.LEHB63:
	call	_ZNSt7__cxx1112basic_stringIcSt11char_traitsIcESaIcEEC1EPKcRKS3_
.LEHE63:
	leaq	1343(%rbp), %rax
	movq	%rax, %rcx
	call	_ZNSaIcED1Ev
	movl	3692(%rbp), %eax
	addl	$1, %eax
	movl	%eax, 3668(%rbp)
	movq	%rbp, %rax
	leaq	.LC50(%rip), %rdx
	movq	%rax, %rcx
	call	_ZSteqIcSt11char_traitsIcESaIcEEbRKNSt7__cxx1112basic_stringIT_T0_T1_EEPKS5_
	testb	%al, %al
	jne	.L413
	movq	%rbp, %rax
	leaq	.LC51(%rip), %rdx
	movq	%rax, %rcx
	call	_ZSteqIcSt11char_traitsIcESaIcEEbRKNSt7__cxx1112basic_stringIT_T0_T1_EEPKS5_
	testb	%al, %al
	je	.L414
.L413:
	movl	$1, %eax
	jmp	.L415
.L414:
	movl	$0, %eax
.L415:
	testb	%al, %al
	je	.L416
	leaq	1389(%rbp), %rax
	movq	%rax, %rcx
	call	_ZNSaIcEC1Ev
	movq	3784(%rbp), %rax
	movq	(%rax), %rdx
	leaq	1389(%rbp), %rcx
	leaq	1344(%rbp), %rax
	movq	%rcx, %r8
	movq	%rax, %rcx
.LEHB64:
	call	_ZNSt7__cxx1112basic_stringIcSt11char_traitsIcESaIcEEC1EPKcRKS3_
.LEHE64:
	leaq	1344(%rbp), %rax
	movq	%rax, %rcx
.LEHB65:
	call	_ZL10show_usageNSt7__cxx1112basic_stringIcSt11char_traitsIcESaIcEEE
.LEHE65:
	leaq	1344(%rbp), %rax
	movq	%rax, %rcx
	call	_ZNSt7__cxx1112basic_stringIcSt11char_traitsIcESaIcEED1Ev
	leaq	1389(%rbp), %rax
	movq	%rax, %rcx
	call	_ZNSaIcED1Ev
	movl	$0, %edi
	movl	$0, %ebx
	jmp	.L417
.L416:
	movq	%rbp, %rax
	leaq	.LC52(%rip), %rdx
	movq	%rax, %rcx
	call	_ZSteqIcSt11char_traitsIcESaIcEEbRKNSt7__cxx1112basic_stringIT_T0_T1_EEPKS5_
	testb	%al, %al
	jne	.L418
	movq	%rbp, %rax
	leaq	.LC53(%rip), %rdx
	movq	%rax, %rcx
	call	_ZSteqIcSt11char_traitsIcESaIcEEbRKNSt7__cxx1112basic_stringIT_T0_T1_EEPKS5_
	testb	%al, %al
	je	.L419
.L418:
	movl	$1, %eax
	jmp	.L420
.L419:
	movl	$0, %eax
.L420:
	testb	%al, %al
	je	.L421
	movb	$0, showstat(%rip)
	jmp	.L422
.L421:
	movq	%rbp, %rax
	leaq	.LC54(%rip), %rdx
	movq	%rax, %rcx
	call	_ZSteqIcSt11char_traitsIcESaIcEEbRKNSt7__cxx1112basic_stringIT_T0_T1_EEPKS5_
	testb	%al, %al
	jne	.L423
	movq	%rbp, %rax
	leaq	.LC55(%rip), %rdx
	movq	%rax, %rcx
	call	_ZSteqIcSt11char_traitsIcESaIcEEbRKNSt7__cxx1112basic_stringIT_T0_T1_EEPKS5_
	testb	%al, %al
	je	.L424
.L423:
	movl	$1, %eax
	jmp	.L425
.L424:
	movl	$0, %eax
.L425:
	testb	%al, %al
	je	.L426
	leaq	1390(%rbp), %rax
	movq	%rax, %rcx
	call	_ZNSaIcEC1Ev
	movl	3668(%rbp), %eax
	cltq
	leaq	0(,%rax,8), %rdx
	movq	3784(%rbp), %rax
	addq	%rdx, %rax
	movq	(%rax), %rdx
	leaq	1390(%rbp), %rcx
	leaq	464(%rbp), %rax
	movq	%rcx, %r8
	movq	%rax, %rcx
.LEHB66:
	call	_ZNSt7__cxx1112basic_stringIcSt11char_traitsIcESaIcEEC1EPKcRKS3_
.LEHE66:
	leaq	1390(%rbp), %rax
	movq	%rax, %rcx
	call	_ZNSaIcED1Ev
	leaq	464(%rbp), %rax
	movq	%rax, %rcx
	call	_ZNKSt7__cxx1112basic_stringIcSt11char_traitsIcESaIcEE5emptyEv
	testb	%al, %al
	je	.L427
	leaq	.LC56(%rip), %rdx
	movq	.refptr._ZSt4cout(%rip), %rcx
.LEHB67:
	call	_ZStlsISt11char_traitsIcEERSt13basic_ostreamIcT_ES5_PKc
	movl	$1, %edi
	movl	$0, %ebx
	jmp	.L428
.L427:
	leaq	464(%rbp), %rax
	movq	%rax, %rdx
	leaq	_Z8filenameB5cxx11(%rip), %rcx
	call	_ZNSt7__cxx1112basic_stringIcSt11char_traitsIcESaIcEEaSERKS4_
.LEHE67:
	movl	$1, %ebx
.L428:
	leaq	464(%rbp), %rax
	movq	%rax, %rcx
	call	_ZNSt7__cxx1112basic_stringIcSt11char_traitsIcESaIcEED1Ev
	cmpl	$1, %ebx
	je	.L422
	movl	$0, %ebx
	jmp	.L417
.L426:
	movq	%rbp, %rax
	leaq	.LC57(%rip), %rdx
	movq	%rax, %rcx
	call	_ZSteqIcSt11char_traitsIcESaIcEEbRKNSt7__cxx1112basic_stringIT_T0_T1_EEPKS5_
	testb	%al, %al
	jne	.L430
	movq	%rbp, %rax
	leaq	.LC58(%rip), %rdx
	movq	%rax, %rcx
	call	_ZSteqIcSt11char_traitsIcESaIcEEbRKNSt7__cxx1112basic_stringIT_T0_T1_EEPKS5_
	testb	%al, %al
	jne	.L430
	movq	%rbp, %rax
	leaq	.LC59(%rip), %rdx
	movq	%rax, %rcx
	call	_ZSteqIcSt11char_traitsIcESaIcEEbRKNSt7__cxx1112basic_stringIT_T0_T1_EEPKS5_
	testb	%al, %al
	je	.L431
.L430:
	movl	$1, %eax
	jmp	.L432
.L431:
	movl	$0, %eax
.L432:
	testb	%al, %al
	je	.L433
	movb	$1, hushmusic(%rip)
	jmp	.L422
.L433:
	movq	%rbp, %rax
	leaq	.LC60(%rip), %rdx
	movq	%rax, %rcx
	call	_ZSteqIcSt11char_traitsIcESaIcEEbRKNSt7__cxx1112basic_stringIT_T0_T1_EEPKS5_
	testb	%al, %al
	jne	.L434
	movq	%rbp, %rax
	leaq	.LC61(%rip), %rdx
	movq	%rax, %rcx
	call	_ZSteqIcSt11char_traitsIcESaIcEEbRKNSt7__cxx1112basic_stringIT_T0_T1_EEPKS5_
	testb	%al, %al
	jne	.L434
	movq	%rbp, %rax
	leaq	.LC62(%rip), %rdx
	movq	%rax, %rcx
	call	_ZSteqIcSt11char_traitsIcESaIcEEbRKNSt7__cxx1112basic_stringIT_T0_T1_EEPKS5_
	testb	%al, %al
	je	.L435
.L434:
	movl	$1, %eax
	jmp	.L436
.L435:
	movl	$0, %eax
.L436:
	testb	%al, %al
	je	.L437
	movb	$1, nolog(%rip)
	jmp	.L422
.L437:
	movq	%rbp, %rax
	leaq	.LC63(%rip), %rdx
	movq	%rax, %rcx
	call	_ZSteqIcSt11char_traitsIcESaIcEEbRKNSt7__cxx1112basic_stringIT_T0_T1_EEPKS5_
	testb	%al, %al
	jne	.L438
	movq	%rbp, %rax
	leaq	.LC64(%rip), %rdx
	movq	%rax, %rcx
	call	_ZSteqIcSt11char_traitsIcESaIcEEbRKNSt7__cxx1112basic_stringIT_T0_T1_EEPKS5_
	testb	%al, %al
	je	.L439
.L438:
	movl	$1, %eax
	jmp	.L440
.L439:
	movl	$0, %eax
.L440:
	testb	%al, %al
	je	.L441
	leaq	1391(%rbp), %rax
	movq	%rax, %rcx
	call	_ZNSaIcEC1Ev
	movl	3668(%rbp), %eax
	cltq
	leaq	0(,%rax,8), %rdx
	movq	3784(%rbp), %rax
	addq	%rdx, %rax
	movq	(%rax), %rdx
	leaq	1391(%rbp), %rcx
	leaq	464(%rbp), %rax
	movq	%rcx, %r8
	movq	%rax, %rcx
.LEHB68:
	call	_ZNSt7__cxx1112basic_stringIcSt11char_traitsIcESaIcEEC1EPKcRKS3_
.LEHE68:
	leaq	1391(%rbp), %rax
	movq	%rax, %rcx
	call	_ZNSaIcED1Ev
	leaq	464(%rbp), %rax
	movq	%rax, %rcx
	call	_ZNKSt7__cxx1112basic_stringIcSt11char_traitsIcESaIcEE5emptyEv
	testb	%al, %al
	je	.L442
	leaq	.LC65(%rip), %rdx
	movq	.refptr._ZSt4cout(%rip), %rcx
.LEHB69:
	call	_ZStlsISt11char_traitsIcEERSt13basic_ostreamIcT_ES5_PKc
	movl	$1, %edi
	movl	$0, %ebx
	jmp	.L443
.L442:
	leaq	464(%rbp), %rax
	movq	%rax, %rdx
	leaq	_Z7lognameB5cxx11(%rip), %rcx
	call	_ZNSt7__cxx1112basic_stringIcSt11char_traitsIcESaIcEEaSERKS4_
.LEHE69:
	movl	$1, %ebx
.L443:
	leaq	464(%rbp), %rax
	movq	%rax, %rcx
	call	_ZNSt7__cxx1112basic_stringIcSt11char_traitsIcESaIcEED1Ev
	cmpl	$1, %ebx
	je	.L422
	movl	$0, %ebx
	jmp	.L417
.L441:
	leaq	1438(%rbp), %rax
	movq	%rax, %rcx
	call	_ZNSaIcEC1Ev
	movl	3692(%rbp), %eax
	cltq
	leaq	0(,%rax,8), %rdx
	movq	3784(%rbp), %rax
	addq	%rdx, %rax
	movq	(%rax), %rdx
	leaq	1438(%rbp), %rcx
	leaq	1392(%rbp), %rax
	movq	%rcx, %r8
	movq	%rax, %rcx
.LEHB70:
	call	_ZNSt7__cxx1112basic_stringIcSt11char_traitsIcESaIcEEC1EPKcRKS3_
.LEHE70:
	leaq	1392(%rbp), %rdx
	leaq	1024(%rbp), %rax
	movq	%rax, %rcx
.LEHB71:
	call	_ZNSt6vectorINSt7__cxx1112basic_stringIcSt11char_traitsIcESaIcEEESaIS5_EE9push_backEOS5_
.LEHE71:
	leaq	1392(%rbp), %rax
	movq	%rax, %rcx
	call	_ZNSt7__cxx1112basic_stringIcSt11char_traitsIcESaIcEED1Ev
	leaq	1438(%rbp), %rax
	movq	%rax, %rcx
	call	_ZNSaIcED1Ev
.L422:
	movl	$1, %ebx
.L417:
	movq	%rbp, %rax
	movq	%rax, %rcx
	call	_ZNSt7__cxx1112basic_stringIcSt11char_traitsIcESaIcEED1Ev
	cmpl	$1, %ebx
	jne	.L445
	addl	$1, 3692(%rbp)
	jmp	.L446
.L445:
	movl	$0, %ebx
	jmp	.L447
.L412:
	movl	$1, %ebx
.L447:
	leaq	-32(%rbp), %rax
	movq	%rax, %rcx
	call	_ZNSt7__cxx1112basic_stringIcSt11char_traitsIcESaIcEED1Ev
	cmpl	$1, %ebx
	je	.L448
	movl	$0, %ebx
	jmp	.L449
.L448:
	movl	$1, %ebx
.L449:
	leaq	1024(%rbp), %rax
	movq	%rax, %rcx
	call	_ZNSt6vectorINSt7__cxx1112basic_stringIcSt11char_traitsIcESaIcEEESaIS5_EED1Ev
	cmpl	$1, %ebx
	jne	.L451
.L411:
	leaq	_Z7lognameB5cxx11(%rip), %rcx
	call	_ZNKSt7__cxx1112basic_stringIcSt11char_traitsIcESaIcEE5c_strEv
	movq	%rax, 3656(%rbp)
	leaq	futura(%rip), %rcx
	call	_ZSt4moveIRSt6futureIvEEONSt16remove_referenceIT_E4typeEOS4_
	movq	%rax, %rdx
	leaq	1096(%rbp), %rax
	movq	%rdx, %r8
	leaq	_Z5musicSt6futureIvE(%rip), %rdx
	movq	%rax, %rcx
.LEHB72:
	call	_ZNSt6threadC1IRFiSt6futureIvEEJS2_EvEEOT_DpOT0_
.LEHE72:
	movzbl	nolog(%rip), %eax
	movzbl	%al, %eax
	testl	%eax, %eax
	jne	.L452
	movq	3656(%rbp), %rax
	movl	$0, %r9d
	movl	$0, %r8d
	movq	%rax, %rdx
	movl	$6, %ecx
.LEHB73:
	call	_ZN4plog4initENS_8SeverityEPKcyi
.L452:
	movzbl	hushmusic(%rip), %eax
	movzbl	%al, %eax
	cmpl	$1, %eax
	jne	.L453
	leaq	signal_exit_musix_thread(%rip), %rcx
	call	_ZNSt7promiseIvE9set_valueEv
	leaq	1096(%rbp), %rax
	movq	%rax, %rcx
	call	_ZNSt6thread4joinEv
.L453:
	leaq	.LC66(%rip), %rcx
	call	system
	leaq	.LC67(%rip), %rdx
	movq	.refptr._ZSt4cout(%rip), %rcx
	call	_ZStlsISt11char_traitsIcEERSt13basic_ostreamIcT_ES5_PKc
	leaq	_Z5titleB5cxx11(%rip), %rdx
	movq	%rax, %rcx
	call	_ZStlsIcSt11char_traitsIcESaIcEERSt13basic_ostreamIT_T0_ES7_RKNSt7__cxx1112basic_stringIS4_S5_T1_EE
	leaq	.LC68(%rip), %rdx
	movq	%rax, %rcx
	call	_ZStlsISt11char_traitsIcEERSt13basic_ostreamIcT_ES5_PKc
	leaq	.LC69(%rip), %rdx
	movq	%rax, %rcx
	call	_ZStlsISt11char_traitsIcEERSt13basic_ostreamIcT_ES5_PKc
	leaq	_Z5titleB5cxx11(%rip), %rdx
	movq	%rax, %rcx
	call	_ZStlsIcSt11char_traitsIcESaIcEERSt13basic_ostreamIT_T0_ES7_RKNSt7__cxx1112basic_stringIS4_S5_T1_EE
	movq	.refptr._ZSt4endlIcSt11char_traitsIcEERSt13basic_ostreamIT_T0_ES6_(%rip), %rdx
	movq	%rax, %rcx
	call	_ZNSolsEPFRSoS_E
	leaq	.LC70(%rip), %rdx
	movq	%rax, %rcx
	call	_ZStlsISt11char_traitsIcEERSt13basic_ostreamIcT_ES5_PKc
	movq	.refptr._ZSt4endlIcSt11char_traitsIcEERSt13basic_ostreamIT_T0_ES6_(%rip), %rdx
	movq	%rax, %rcx
	call	_ZNSolsEPFRSoS_E
	leaq	.LC71(%rip), %rdx
	movq	%rax, %rcx
	call	_ZStlsISt11char_traitsIcEERSt13basic_ostreamIcT_ES5_PKc
	movq	.refptr._ZSt4endlIcSt11char_traitsIcEERSt13basic_ostreamIT_T0_ES6_(%rip), %rdx
	movq	%rax, %rcx
	call	_ZNSolsEPFRSoS_E
.LEHE73:
	leaq	1439(%rbp), %rax
	movq	%rax, %rcx
	call	_ZNSaIcEC1Ev
	leaq	1439(%rbp), %rdx
	leaq	1056(%rbp), %rax
	movq	%rdx, %r8
	leaq	.LC16(%rip), %rdx
	movq	%rax, %rcx
.LEHB74:
	call	_ZNSt7__cxx1112basic_stringIcSt11char_traitsIcESaIcEEC1EPKcRKS3_
.LEHE74:
	leaq	1439(%rbp), %rax
	movq	%rax, %rcx
	call	_ZNSaIcED1Ev
	leaq	1056(%rbp), %rax
	movq	%rax, %rdx
	movq	.refptr._ZSt3cin(%rip), %rcx
.LEHB75:
	call	_ZSt7getlineIcSt11char_traitsIcESaIcEERSt13basic_istreamIT_T0_ES7_RNSt7__cxx1112basic_stringIS4_S5_T1_EE
	movq	_Z5blankB5cxx11(%rip), %rdx
	leaq	1056(%rbp), %rax
	movq	%rax, %rcx
	call	_ZNSt7__cxx1112basic_stringIcSt11char_traitsIcESaIcEEaSERKS4_
	leaq	1056(%rbp), %rax
	leaq	.LC72(%rip), %rdx
	movq	%rax, %rcx
	call	_ZSteqIcSt11char_traitsIcESaIcEEbRKNSt7__cxx1112basic_stringIT_T0_T1_EEPKS5_
	testb	%al, %al
	jne	.L454
	leaq	1056(%rbp), %rax
	leaq	.LC73(%rip), %rdx
	movq	%rax, %rcx
	call	_ZSteqIcSt11char_traitsIcESaIcEEbRKNSt7__cxx1112basic_stringIT_T0_T1_EEPKS5_
	testb	%al, %al
	je	.L455
.L454:
	movl	$1, %eax
	jmp	.L456
.L455:
	movl	$0, %eax
.L456:
	testb	%al, %al
	je	.L457
	movl	$0, %edi
	jmp	.L458
.L457:
	leaq	.LC74(%rip), %rdx
	movq	.refptr._ZSt4cout(%rip), %rcx
	call	_ZStlsISt11char_traitsIcEERSt13basic_ostreamIcT_ES5_PKc
	movq	.refptr._ZSt4endlIcSt11char_traitsIcEERSt13basic_ostreamIT_T0_ES6_(%rip), %rdx
	movq	%rax, %rcx
	call	_ZNSolsEPFRSoS_E
	leaq	_Z4nameB5cxx11(%rip), %rdx
	movq	.refptr._ZSt3cin(%rip), %rcx
	call	_ZSt7getlineIcSt11char_traitsIcESaIcEERSt13basic_istreamIT_T0_ES7_RNSt7__cxx1112basic_stringIS4_S5_T1_EE
	leaq	_Z4nameB5cxx11(%rip), %rcx
	call	_ZNKSt7__cxx1112basic_stringIcSt11char_traitsIcESaIcEE5emptyEv
	testb	%al, %al
	je	.L459
	leaq	_Z7defnameB5cxx11(%rip), %rdx
	leaq	_Z4nameB5cxx11(%rip), %rcx
	call	_ZNSt7__cxx1112basic_stringIcSt11char_traitsIcESaIcEEaSERKS4_
	movzbl	nolog(%rip), %eax
	movzbl	%al, %eax
	testl	%eax, %eax
	jne	.L460
	call	_ZN4plog3getILi0EEEPNS_6LoggerIXT_EEEv
	testq	%rax, %rax
	je	.L461
	call	_ZN4plog3getILi0EEEPNS_6LoggerIXT_EEEv
	movl	$3, %edx
	movq	%rax, %rcx
	call	_ZNK4plog6LoggerILi0EE13checkSeverityENS_8SeverityE
	xorl	$1, %eax
	testb	%al, %al
	je	.L462
.L461:
	movl	$1, %eax
	jmp	.L463
.L462:
	movl	$0, %eax
.L463:
	testb	%al, %al
	jne	.L460
	leaq	1440(%rbp), %rax
	movl	$0, 48(%rsp)
	movq	$0, 40(%rsp)
	leaq	.LC16(%rip), %rdx
	movq	%rdx, 32(%rsp)
	movl	$392, %r9d
	leaq	.LC75(%rip), %r8
	movl	$3, %edx
	movq	%rax, %rcx
	call	_ZN4plog6RecordC1ENS_8SeverityEPKcyS3_PKvi
.LEHE75:
	leaq	1440(%rbp), %rax
	movq	%rax, %rcx
	call	_ZN4plog6Record3refEv
	leaq	.LC76(%rip), %rdx
	movq	%rax, %rcx
.LEHB76:
	call	_ZN4plog6RecordlsIA17_cEERS0_RKT_
	movq	%rax, %rbx
	call	_ZN4plog3getILi0EEEPNS_6LoggerIXT_EEEv
	movq	%rbx, %rdx
	movq	%rax, %rcx
	call	_ZN4plog6LoggerILi0EEpLERKNS_6RecordE
.LEHE76:
	leaq	1440(%rbp), %rax
	movq	%rax, %rcx
	call	_ZN4plog6RecordD1Ev
	jmp	.L460
.L459:
	leaq	_Z8compnameB5cxx11(%rip), %rdx
	leaq	_Z4nameB5cxx11(%rip), %rcx
	call	_ZSteqIcEN9__gnu_cxx11__enable_ifIXsrSt9__is_charIT_E7__valueEbE6__typeERKNSt7__cxx1112basic_stringIS3_St11char_traitsIS3_ESaIS3_EEESE_
	testb	%al, %al
	je	.L460
	leaq	_Z7defnameB5cxx11(%rip), %rdx
	leaq	_Z4nameB5cxx11(%rip), %rcx
.LEHB77:
	call	_ZNSt7__cxx1112basic_stringIcSt11char_traitsIcESaIcEEaSERKS4_
	leaq	.LC77(%rip), %rdx
	movq	.refptr._ZSt4cout(%rip), %rcx
	call	_ZStlsISt11char_traitsIcEERSt13basic_ostreamIcT_ES5_PKc
	movq	.refptr._ZSt4endlIcSt11char_traitsIcEERSt13basic_ostreamIT_T0_ES6_(%rip), %rdx
	movq	%rax, %rcx
	call	_ZNSolsEPFRSoS_E
	movq	.refptr._ZSt4endlIcSt11char_traitsIcEERSt13basic_ostreamIT_T0_ES6_(%rip), %rdx
	movq	%rax, %rcx
	call	_ZNSolsEPFRSoS_E
	leaq	_ZL12thisisyouimg(%rip), %rdx
	movq	%rax, %rcx
	call	_ZStlsIcSt11char_traitsIcESaIcEERSt13basic_ostreamIT_T0_ES7_RKNSt7__cxx1112basic_stringIS4_S5_T1_EE
	movq	.refptr._ZSt4endlIcSt11char_traitsIcEERSt13basic_ostreamIT_T0_ES6_(%rip), %rdx
	movq	%rax, %rcx
	call	_ZNSolsEPFRSoS_E
.L460:
	leaq	.LC78(%rip), %rdx
	leaq	_Z4nameB5cxx11(%rip), %rcx
	call	_ZSteqIcSt11char_traitsIcESaIcEEbRKNSt7__cxx1112basic_stringIT_T0_T1_EEPKS5_
	testb	%al, %al
	jne	.L464
	leaq	.LC79(%rip), %rdx
	leaq	_Z4nameB5cxx11(%rip), %rcx
	call	_ZSteqIcSt11char_traitsIcESaIcEEbRKNSt7__cxx1112basic_stringIT_T0_T1_EEPKS5_
	testb	%al, %al
	jne	.L464
	leaq	.LC80(%rip), %rdx
	leaq	_Z4nameB5cxx11(%rip), %rcx
	call	_ZSteqIcSt11char_traitsIcESaIcEEbRKNSt7__cxx1112basic_stringIT_T0_T1_EEPKS5_
	testb	%al, %al
	jne	.L464
	leaq	.LC81(%rip), %rdx
	leaq	_Z4nameB5cxx11(%rip), %rcx
	call	_ZSteqIcSt11char_traitsIcESaIcEEbRKNSt7__cxx1112basic_stringIT_T0_T1_EEPKS5_
	testb	%al, %al
	je	.L465
.L464:
	movl	$1, %eax
	jmp	.L466
.L465:
	movl	$0, %eax
.L466:
	testb	%al, %al
	je	.L467
	movb	$1, cheatmode(%rip)
	leaq	.LC82(%rip), %rdx
	movq	.refptr._ZSt4cout(%rip), %rcx
	call	_ZStlsISt11char_traitsIcEERSt13basic_ostreamIcT_ES5_PKc
	movq	.refptr._ZSt4endlIcSt11char_traitsIcEERSt13basic_ostreamIT_T0_ES6_(%rip), %rdx
	movq	%rax, %rcx
	call	_ZNSolsEPFRSoS_E
	call	_ZN4plog3getILi0EEEPNS_6LoggerIXT_EEEv
	testq	%rax, %rax
	je	.L468
	call	_ZN4plog3getILi0EEEPNS_6LoggerIXT_EEEv
	movl	$4, %edx
	movq	%rax, %rcx
	call	_ZNK4plog6LoggerILi0EE13checkSeverityENS_8SeverityE
	xorl	$1, %eax
	testb	%al, %al
	je	.L469
.L468:
	movl	$1, %eax
	jmp	.L470
.L469:
	movl	$0, %eax
.L470:
	testb	%al, %al
	jne	.L467
	leaq	1952(%rbp), %rax
	movl	$0, 48(%rsp)
	movq	$0, 40(%rsp)
	leaq	.LC16(%rip), %rdx
	movq	%rdx, 32(%rsp)
	movl	$405, %r9d
	leaq	.LC75(%rip), %r8
	movl	$4, %edx
	movq	%rax, %rcx
	call	_ZN4plog6RecordC1ENS_8SeverityEPKcyS3_PKvi
.LEHE77:
	leaq	1952(%rbp), %rax
	movq	%rax, %rcx
	call	_ZN4plog6Record3refEv
	leaq	.LC83(%rip), %rdx
	movq	%rax, %rcx
.LEHB78:
	call	_ZN4plog6RecordlsIA8_cEERS0_RKT_
	movq	%rax, %rbx
	call	_ZN4plog3getILi0EEEPNS_6LoggerIXT_EEEv
	movq	%rbx, %rdx
	movq	%rax, %rcx
	call	_ZN4plog6LoggerILi0EEpLERKNS_6RecordE
.LEHE78:
	leaq	1952(%rbp), %rax
	movq	%rax, %rcx
	call	_ZN4plog6RecordD1Ev
.L467:
	leaq	.LC84(%rip), %rdx
	movq	.refptr._ZSt4cout(%rip), %rcx
.LEHB79:
	call	_ZStlsISt11char_traitsIcEERSt13basic_ostreamIcT_ES5_PKc
	leaq	_Z4nameB5cxx11(%rip), %rdx
	movq	%rax, %rcx
	call	_ZStlsIcSt11char_traitsIcESaIcEERSt13basic_ostreamIT_T0_ES7_RKNSt7__cxx1112basic_stringIS4_S5_T1_EE
	leaq	.LC85(%rip), %rdx
	movq	%rax, %rcx
	call	_ZStlsISt11char_traitsIcEERSt13basic_ostreamIcT_ES5_PKc
	movq	.refptr._ZSt4endlIcSt11char_traitsIcEERSt13basic_ostreamIT_T0_ES6_(%rip), %rdx
	movq	%rax, %rcx
	call	_ZNSolsEPFRSoS_E
.L474:
	leaq	_Z6bufferB5cxx11(%rip), %rdx
	movq	.refptr._ZSt3cin(%rip), %rcx
	call	_ZStrsIcSt11char_traitsIcESaIcEERSt13basic_istreamIT_T0_ES7_RNSt7__cxx1112basic_stringIS4_S5_T1_EE
.LEHE79:
	leaq	_Z8compnameB5cxx11(%rip), %rdx
	leaq	_Z6bufferB5cxx11(%rip), %rcx
	call	_ZSteqIcEN9__gnu_cxx11__enable_ifIXsrSt9__is_charIT_E7__valueEbE6__typeERKNSt7__cxx1112basic_stringIS3_St11char_traitsIS3_ESaIS3_EEESE_
	testb	%al, %al
	je	.L471
	movl	$8, %ecx
	call	__cxa_allocate_exception
	movq	%rax, %rbx
	leaq	ASRTBE(%rip), %rdx
	movq	%rbx, %rcx
	call	_ZN41AbigailSaphiroRuntimeThiccBreastExceptionC1ERKS_
	leaq	_ZN41AbigailSaphiroRuntimeThiccBreastExceptionD1Ev(%rip), %rax
	movq	%rax, %r8
	leaq	_ZTI41AbigailSaphiroRuntimeThiccBreastException(%rip), %rdx
	movq	%rbx, %rcx
.LEHB80:
	call	__cxa_throw
.L471:
	movl	$10, %r8d
	movl	$0, %edx
	leaq	_Z6bufferB5cxx11(%rip), %rcx
	call	_ZNSt7__cxx114stoiERKNS_12basic_stringIcSt11char_traitsIcESaIcEEEPyi
	movl	%eax, 3724(%rbp)
	movzbl	cheatmode(%rip), %eax
	movzbl	%al, %eax
	cmpl	$1, %eax
	jne	.L472
	addl	$100, 3724(%rbp)
	addl	$1000, 3716(%rbp)
.L472:
	call	_Z3BELv
	movl	$10, %edx
	movl	$1, %ecx
	call	_Z7randintii
	movl	3724(%rbp), %edx
	addl	%eax, %edx
	movl	3716(%rbp), %eax
	imull	%edx, %eax
	movl	%eax, 3716(%rbp)
	movl	$5, %edx
	movl	$1, %ecx
	call	_Z7randintii
.LEHE80:
	movl	3724(%rbp), %edx
	addl	%eax, %edx
	movl	3712(%rbp), %eax
	imull	%edx, %eax
	movl	%eax, 3712(%rbp)
	nop
	movq	.refptr._ZSt4endlIcSt11char_traitsIcEERSt13basic_ostreamIT_T0_ES6_(%rip), %rdx
	movq	.refptr._ZSt4cout(%rip), %rcx
.LEHB81:
	call	_ZNSolsEPFRSoS_E
	jmp	.L667
.L578:
	jmp	.L474
.L667:
	leaq	.LC86(%rip), %rdx
	movq	%rax, %rcx
	call	_ZStlsISt11char_traitsIcEERSt13basic_ostreamIcT_ES5_PKc
	movq	.refptr._ZSt4endlIcSt11char_traitsIcEERSt13basic_ostreamIT_T0_ES6_(%rip), %rdx
	movq	%rax, %rcx
	call	_ZNSolsEPFRSoS_E
	leaq	.LC87(%rip), %rdx
	movq	%rax, %rcx
	call	_ZStlsISt11char_traitsIcEERSt13basic_ostreamIcT_ES5_PKc
	movq	.refptr._ZSt4endlIcSt11char_traitsIcEERSt13basic_ostreamIT_T0_ES6_(%rip), %rdx
	movq	%rax, %rcx
	call	_ZNSolsEPFRSoS_E
	leaq	.LC88(%rip), %rdx
	movq	%rax, %rcx
	call	_ZStlsISt11char_traitsIcEERSt13basic_ostreamIcT_ES5_PKc
	movq	.refptr._ZSt4endlIcSt11char_traitsIcEERSt13basic_ostreamIT_T0_ES6_(%rip), %rdx
	movq	%rax, %rcx
	call	_ZNSolsEPFRSoS_E
	leaq	.LC89(%rip), %rdx
	movq	%rax, %rcx
	call	_ZStlsISt11char_traitsIcEERSt13basic_ostreamIcT_ES5_PKc
	movq	.refptr._ZSt4endlIcSt11char_traitsIcEERSt13basic_ostreamIT_T0_ES6_(%rip), %rdx
	movq	%rax, %rcx
	call	_ZNSolsEPFRSoS_E
	leaq	.LC90(%rip), %rdx
	movq	%rax, %rcx
	call	_ZStlsISt11char_traitsIcEERSt13basic_ostreamIcT_ES5_PKc
	movq	.refptr._ZSt4endlIcSt11char_traitsIcEERSt13basic_ostreamIT_T0_ES6_(%rip), %rdx
	movq	%rax, %rcx
	call	_ZNSolsEPFRSoS_E
	leaq	.LC91(%rip), %rdx
	movq	%rax, %rcx
	call	_ZStlsISt11char_traitsIcEERSt13basic_ostreamIcT_ES5_PKc
	movq	.refptr._ZSt4endlIcSt11char_traitsIcEERSt13basic_ostreamIT_T0_ES6_(%rip), %rdx
	movq	%rax, %rcx
	call	_ZNSolsEPFRSoS_E
	movq	_Z5blankB5cxx11(%rip), %rax
	movq	%rax, %rdx
	movq	.refptr._ZSt3cin(%rip), %rcx
	call	_ZStrsIcSt11char_traitsIcESaIcEERSt13basic_istreamIT_T0_ES7_RNSt7__cxx1112basic_stringIS4_S5_T1_EE
	call	_Z3BELv
	leaq	.LC92(%rip), %rdx
	movq	.refptr._ZSt4cout(%rip), %rcx
	call	_ZStlsISt11char_traitsIcEERSt13basic_ostreamIcT_ES5_PKc
	leaq	_Z4nameB5cxx11(%rip), %rdx
	movq	%rax, %rcx
	call	_ZStlsIcSt11char_traitsIcESaIcEERSt13basic_ostreamIT_T0_ES7_RKNSt7__cxx1112basic_stringIS4_S5_T1_EE
	leaq	.LC93(%rip), %rdx
	movq	%rax, %rcx
	call	_ZStlsISt11char_traitsIcEERSt13basic_ostreamIcT_ES5_PKc
	movq	.refptr._ZSt4endlIcSt11char_traitsIcEERSt13basic_ostreamIT_T0_ES6_(%rip), %rdx
	movq	%rax, %rcx
	call	_ZNSolsEPFRSoS_E
	movq	.refptr._ZSt4endlIcSt11char_traitsIcEERSt13basic_ostreamIT_T0_ES6_(%rip), %rdx
	movq	%rax, %rcx
	call	_ZNSolsEPFRSoS_E
	movl	$2, 2988(%rbp)
	leaq	2988(%rbp), %rdx
	leaq	2976(%rbp), %rax
	movq	%rax, %rcx
	call	_ZNSt6chrono8durationIxSt5ratioILx1ELx1EEEC1IivEERKT_
	leaq	2976(%rbp), %rax
	movq	%rax, %rcx
	call	_ZNSt11this_thread9sleep_forIxSt5ratioILx1ELx1EEEEvRKNSt6chrono8durationIT_T0_EE
	call	_Z3BELv
.L513:
	cmpl	$0, 3708(%rbp)
	jne	.L475
	movl	3684(%rbp), %edx
	movl	3680(%rbp), %eax
	movl	%eax, %ecx
	call	_Z7randintii
	movl	%eax, 3652(%rbp)
	leaq	.LC94(%rip), %rdx
	movq	.refptr._ZSt4cout(%rip), %rcx
	call	_ZStlsISt11char_traitsIcEERSt13basic_ostreamIcT_ES5_PKc
	movq	%rax, %rcx
	movl	3680(%rbp), %eax
	movl	%eax, %edx
	call	_ZNSolsEi
	leaq	.LC95(%rip), %rdx
	movq	%rax, %rcx
	call	_ZStlsISt11char_traitsIcEERSt13basic_ostreamIcT_ES5_PKc
	movq	%rax, %rcx
	movl	3684(%rbp), %eax
	movl	%eax, %edx
	call	_ZNSolsEi
	movq	.refptr._ZSt4endlIcSt11char_traitsIcEERSt13basic_ostreamIT_T0_ES6_(%rip), %rdx
	movq	%rax, %rcx
	call	_ZNSolsEPFRSoS_E
.L487:
	leaq	.LC96(%rip), %rdx
	movq	.refptr._ZSt4cout(%rip), %rcx
	call	_ZStlsISt11char_traitsIcEERSt13basic_ostreamIcT_ES5_PKc
	movq	%rax, %rcx
	movl	3720(%rbp), %eax
	movl	%eax, %edx
	call	_ZNSolsEi
	leaq	.LC97(%rip), %rdx
	movq	%rax, %rcx
	call	_ZStlsISt11char_traitsIcEERSt13basic_ostreamIcT_ES5_PKc
	movq	.refptr._ZSt4endlIcSt11char_traitsIcEERSt13basic_ostreamIT_T0_ES6_(%rip), %rdx
	movq	%rax, %rcx
	call	_ZNSolsEPFRSoS_E
	cmpl	$0, 3720(%rbp)
	jg	.L476
	movl	$1, 3708(%rbp)
	jmp	.L477
.L476:
	cmpl	$1, 3720(%rbp)
	jne	.L478
	leaq	.LC98(%rip), %rdx
	movq	.refptr._ZSt4cout(%rip), %rcx
	call	_ZStlsISt11char_traitsIcEERSt13basic_ostreamIcT_ES5_PKc
	movq	.refptr._ZSt4endlIcSt11char_traitsIcEERSt13basic_ostreamIT_T0_ES6_(%rip), %rdx
	movq	%rax, %rcx
	call	_ZNSolsEPFRSoS_E
.L478:
	leaq	_Z6bufferB5cxx11(%rip), %rdx
	movq	.refptr._ZSt3cin(%rip), %rcx
	call	_ZStrsIcSt11char_traitsIcESaIcEERSt13basic_istreamIT_T0_ES7_RNSt7__cxx1112basic_stringIS4_S5_T1_EE
.LEHE81:
	movl	$10, %r8d
	movl	$0, %edx
	leaq	_Z6bufferB5cxx11(%rip), %rcx
.LEHB82:
	call	_ZNSt7__cxx114stoiERKNS_12basic_stringIcSt11char_traitsIcESaIcEEEPyi
	movl	%eax, 3676(%rbp)
	cmpl	$0, 3720(%rbp)
	jg	.L479
	movl	$1, 3708(%rbp)
	jmp	.L477
.L479:
	cmpl	$0, 3720(%rbp)
	jg	.L480
	movl	$1, 3708(%rbp)
	jmp	.L477
.L480:
	cmpl	$0, 3720(%rbp)
	jg	.L481
	movl	$1, 3708(%rbp)
	jmp	.L477
.L481:
	movl	3676(%rbp), %eax
	cmpl	3652(%rbp), %eax
	jge	.L482
	leaq	.LC99(%rip), %rdx
	movq	.refptr._ZSt4cout(%rip), %rcx
	call	_ZStlsISt11char_traitsIcEERSt13basic_ostreamIcT_ES5_PKc
	movq	.refptr._ZSt4endlIcSt11char_traitsIcEERSt13basic_ostreamIT_T0_ES6_(%rip), %rdx
	movq	%rax, %rcx
	call	_ZNSolsEPFRSoS_E
	call	_Z3BELv
	addl	$1, 3712(%rbp)
	subl	$2, 3716(%rbp)
	cmpl	$0, 3720(%rbp)
	jg	.L483
	movl	$1, 3708(%rbp)
	jmp	.L477
.L482:
	movl	3676(%rbp), %eax
	cmpl	3652(%rbp), %eax
	jle	.L484
	leaq	.LC100(%rip), %rdx
	movq	.refptr._ZSt4cout(%rip), %rcx
	call	_ZStlsISt11char_traitsIcEERSt13basic_ostreamIcT_ES5_PKc
	movq	.refptr._ZSt4endlIcSt11char_traitsIcEERSt13basic_ostreamIT_T0_ES6_(%rip), %rdx
	movq	%rax, %rcx
	call	_ZNSolsEPFRSoS_E
	call	_Z3BELv
	addl	$2, 3712(%rbp)
	movl	$2, %edx
	movl	$1, %ecx
	call	_Z7randintii
	cmpl	$0, 3720(%rbp)
	jg	.L483
	movl	$1, 3708(%rbp)
	jmp	.L477
.L484:
	leaq	.LC101(%rip), %rdx
	movq	.refptr._ZSt4cout(%rip), %rcx
	call	_ZStlsISt11char_traitsIcEERSt13basic_ostreamIcT_ES5_PKc
	movq	.refptr._ZSt4endlIcSt11char_traitsIcEERSt13basic_ostreamIT_T0_ES6_(%rip), %rdx
	movq	%rax, %rcx
	call	_ZNSolsEPFRSoS_E
	call	_Z3BELv
	movl	$4, %edx
	movl	$2, %ecx
	call	_Z7randintii
.LEHE82:
	movl	3716(%rbp), %edx
	imull	%edx, %eax
	movl	%eax, 3716(%rbp)
	jmp	.L477
.L483:
	cmpl	$0, 3720(%rbp)
	jg	.L485
	movl	$1, 3708(%rbp)
	jmp	.L477
.L485:
	subl	$1, 3720(%rbp)
.L590:
	cmpl	$0, 3720(%rbp)
	jg	.L487
	movl	$1, 3708(%rbp)
.L477:
	cmpl	$0, 3708(%rbp)
	jne	.L671
	movq	.refptr._ZSt4endlIcSt11char_traitsIcEERSt13basic_ostreamIT_T0_ES6_(%rip), %rdx
	movq	.refptr._ZSt4cout(%rip), %rcx
.LEHB83:
	call	_ZNSolsEPFRSoS_E
	cmpl	$10, 3712(%rbp)
	jle	.L489
	movq	.refptr._ZSt4endlIcSt11char_traitsIcEERSt13basic_ostreamIT_T0_ES6_(%rip), %rdx
	movq	.refptr._ZSt4cout(%rip), %rcx
	call	_ZNSolsEPFRSoS_E
	leaq	.LC102(%rip), %rdx
	movq	%rax, %rcx
	call	_ZStlsISt11char_traitsIcEERSt13basic_ostreamIcT_ES5_PKc
	movq	.refptr._ZSt4endlIcSt11char_traitsIcEERSt13basic_ostreamIT_T0_ES6_(%rip), %rdx
	movq	%rax, %rcx
	call	_ZNSolsEPFRSoS_E
	jmp	.L490
.L489:
	cmpl	$1, 3712(%rbp)
	jle	.L491
	movq	.refptr._ZSt4endlIcSt11char_traitsIcEERSt13basic_ostreamIT_T0_ES6_(%rip), %rdx
	movq	.refptr._ZSt4cout(%rip), %rcx
	call	_ZNSolsEPFRSoS_E
	leaq	.LC103(%rip), %rdx
	movq	%rax, %rcx
	call	_ZStlsISt11char_traitsIcEERSt13basic_ostreamIcT_ES5_PKc
	movq	.refptr._ZSt4endlIcSt11char_traitsIcEERSt13basic_ostreamIT_T0_ES6_(%rip), %rdx
	movq	%rax, %rcx
	call	_ZNSolsEPFRSoS_E
	jmp	.L490
.L491:
	cmpl	$1, 3712(%rbp)
	jne	.L492
	movq	.refptr._ZSt4endlIcSt11char_traitsIcEERSt13basic_ostreamIT_T0_ES6_(%rip), %rdx
	movq	.refptr._ZSt4cout(%rip), %rcx
	call	_ZNSolsEPFRSoS_E
	leaq	.LC104(%rip), %rdx
	movq	%rax, %rcx
	call	_ZStlsISt11char_traitsIcEERSt13basic_ostreamIcT_ES5_PKc
	movq	.refptr._ZSt4endlIcSt11char_traitsIcEERSt13basic_ostreamIT_T0_ES6_(%rip), %rdx
	movq	%rax, %rcx
	call	_ZNSolsEPFRSoS_E
	jmp	.L490
.L492:
	movq	.refptr._ZSt4endlIcSt11char_traitsIcEERSt13basic_ostreamIT_T0_ES6_(%rip), %rdx
	movq	.refptr._ZSt4cout(%rip), %rcx
	call	_ZNSolsEPFRSoS_E
	leaq	.LC105(%rip), %rdx
	movq	%rax, %rcx
	call	_ZStlsISt11char_traitsIcEERSt13basic_ostreamIcT_ES5_PKc
	movq	.refptr._ZSt4endlIcSt11char_traitsIcEERSt13basic_ostreamIT_T0_ES6_(%rip), %rdx
	movq	%rax, %rcx
	call	_ZNSolsEPFRSoS_E
.L490:
	call	_Z3BELv
	movl	$2, 3004(%rbp)
	leaq	3004(%rbp), %rdx
	leaq	2992(%rbp), %rax
	movq	%rax, %rcx
	call	_ZNSt6chrono8durationIxSt5ratioILx1ELx1EEEC1IivEERKT_
	leaq	2992(%rbp), %rax
	movq	%rax, %rcx
	call	_ZNSt11this_thread9sleep_forIxSt5ratioILx1ELx1EEEEvRKNSt6chrono8durationIT_T0_EE
	movq	.refptr._ZSt4endlIcSt11char_traitsIcEERSt13basic_ostreamIT_T0_ES6_(%rip), %rdx
	movq	.refptr._ZSt4cout(%rip), %rcx
	call	_ZNSolsEPFRSoS_E
	movl	$50, %edx
	movl	$1, %ecx
	call	_Z7randintii
	movl	%eax, 3648(%rbp)
	cmpl	$1, 3648(%rbp)
	jne	.L493
	leaq	.LC106(%rip), %rdx
	movq	.refptr._ZSt4cout(%rip), %rcx
	call	_ZStlsISt11char_traitsIcEERSt13basic_ostreamIcT_ES5_PKc
	movq	.refptr._ZSt4endlIcSt11char_traitsIcEERSt13basic_ostreamIT_T0_ES6_(%rip), %rdx
	movq	%rax, %rcx
	call	_ZNSolsEPFRSoS_E
.LEHE83:
	movl	$0, 3644(%rbp)
	leaq	_Z6bufferB5cxx11(%rip), %rdx
	movq	.refptr._ZSt3cin(%rip), %rcx
.LEHB84:
	call	_ZStrsIcSt11char_traitsIcESaIcEERSt13basic_istreamIT_T0_ES7_RNSt7__cxx1112basic_stringIS4_S5_T1_EE
	movl	$10, %r8d
	movl	$0, %edx
	leaq	_Z6bufferB5cxx11(%rip), %rcx
	call	_ZNSt7__cxx114stoiERKNS_12basic_stringIcSt11char_traitsIcESaIcEEEPyi
	movl	%eax, 3644(%rbp)
	cmpl	$1, 3644(%rbp)
	jne	.L494
	movl	$5, %edx
	movl	$1, %ecx
	call	_Z7randintii
	movl	%eax, 3640(%rbp)
	movl	3640(%rbp), %eax
	addl	%eax, 3716(%rbp)
	leaq	.LC96(%rip), %rdx
	movq	.refptr._ZSt4cout(%rip), %rcx
	call	_ZStlsISt11char_traitsIcEERSt13basic_ostreamIcT_ES5_PKc
	movq	%rax, %rcx
	movl	3640(%rbp), %eax
	movl	%eax, %edx
	call	_ZNSolsEi
	leaq	.LC107(%rip), %rdx
	movq	%rax, %rcx
	call	_ZStlsISt11char_traitsIcEERSt13basic_ostreamIcT_ES5_PKc
	movq	%rax, %rcx
	movl	3716(%rbp), %eax
	movl	%eax, %edx
	call	_ZNSolsEi
	jmp	.L493
.L494:
	leaq	.LC108(%rip), %rdx
	movq	.refptr._ZSt4cout(%rip), %rcx
	call	_ZStlsISt11char_traitsIcEERSt13basic_ostreamIcT_ES5_PKc
.LEHE84:
.L493:
	movq	.refptr._ZSt4endlIcSt11char_traitsIcEERSt13basic_ostreamIT_T0_ES6_(%rip), %rdx
	movq	.refptr._ZSt4cout(%rip), %rcx
.LEHB85:
	call	_ZNSolsEPFRSoS_E
	movl	$45, %edx
	movl	$1, %ecx
	call	_Z7randintii
	movl	%eax, 3636(%rbp)
	cmpl	$1, 3636(%rbp)
	je	.L495
	movl	$0, 3688(%rbp)
.L497:
	cmpl	$4, 3688(%rbp)
	jg	.L496
	movl	3672(%rbp), %eax
	subl	$1, %eax
	movl	%eax, %edx
	movl	$0, %ecx
	call	_Z7randintii
	leaq	1136(%rbp), %rdx
	cltq
	salq	$5, %rax
	addq	%rax, %rdx
	leaq	464(%rbp), %rax
	movq	%rax, %rcx
	call	_ZNSt7__cxx1112basic_stringIcSt11char_traitsIcESaIcEEC1ERKS4_
.LEHE85:
	leaq	.LC109(%rip), %rdx
	movq	.refptr._ZSt4cout(%rip), %rcx
.LEHB86:
	call	_ZStlsISt11char_traitsIcEERSt13basic_ostreamIcT_ES5_PKc
	movq	%rax, %rcx
	leaq	464(%rbp), %rax
	movq	%rax, %rdx
	call	_ZStlsIcSt11char_traitsIcESaIcEERSt13basic_ostreamIT_T0_ES7_RKNSt7__cxx1112basic_stringIS4_S5_T1_EE
	leaq	.LC110(%rip), %rdx
	movq	%rax, %rcx
	call	_ZStlsISt11char_traitsIcEERSt13basic_ostreamIcT_ES5_PKc
	movq	.refptr._ZSt4endlIcSt11char_traitsIcEERSt13basic_ostreamIT_T0_ES6_(%rip), %rdx
	movq	%rax, %rcx
	call	_ZNSolsEPFRSoS_E
	call	_Z3DETv
	movl	$1, 3020(%rbp)
	leaq	3020(%rbp), %rdx
	leaq	3008(%rbp), %rax
	movq	%rax, %rcx
	call	_ZNSt6chrono8durationIxSt5ratioILx1ELx1EEEC1IivEERKT_
	leaq	3008(%rbp), %rax
	movq	%rax, %rcx
	call	_ZNSt11this_thread9sleep_forIxSt5ratioILx1ELx1EEEEvRKNSt6chrono8durationIT_T0_EE
.LEHE86:
	leaq	464(%rbp), %rax
	movq	%rax, %rcx
	call	_ZNSt7__cxx1112basic_stringIcSt11char_traitsIcESaIcEED1Ev
	addl	$1, 3688(%rbp)
	jmp	.L497
.L496:
	movl	3716(%rbp), %eax
	cmpl	3712(%rbp), %eax
	jge	.L498
	movzbl	cheatmode(%rip), %eax
	movzbl	%al, %eax
	testl	%eax, %eax
	jne	.L498
	movl	$2, 3708(%rbp)
	jmp	.L504
.L498:
	movl	3716(%rbp), %eax
	subl	3712(%rbp), %eax
	cmpl	$7, %eax
	jle	.L500
	leaq	.LC111(%rip), %rdx
	movq	.refptr._ZSt4cout(%rip), %rcx
.LEHB87:
	call	_ZStlsISt11char_traitsIcEERSt13basic_ostreamIcT_ES5_PKc
	movq	.refptr._ZSt4endlIcSt11char_traitsIcEERSt13basic_ostreamIT_T0_ES6_(%rip), %rdx
	movq	%rax, %rcx
	call	_ZNSolsEPFRSoS_E
	call	_Z3BELv
	addl	$1, 3716(%rbp)
	addl	$1, 3700(%rbp)
	addl	$1, 3704(%rbp)
	jmp	.L504
.L500:
	movl	3716(%rbp), %eax
	subl	3712(%rbp), %eax
	cmpl	$5, %eax
	jle	.L501
	leaq	.LC112(%rip), %rdx
	movq	.refptr._ZSt4cout(%rip), %rcx
	call	_ZStlsISt11char_traitsIcEERSt13basic_ostreamIcT_ES5_PKc
	movq	.refptr._ZSt4endlIcSt11char_traitsIcEERSt13basic_ostreamIT_T0_ES6_(%rip), %rdx
	movq	%rax, %rcx
	call	_ZNSolsEPFRSoS_E
	call	_Z3BELv
	addl	$2, 3716(%rbp)
	addl	$2, 3700(%rbp)
	addl	$1, 3704(%rbp)
	jmp	.L504
.L501:
	movl	3716(%rbp), %eax
	subl	3712(%rbp), %eax
	testl	%eax, %eax
	jle	.L502
	leaq	.LC113(%rip), %rdx
	movq	.refptr._ZSt4cout(%rip), %rcx
	call	_ZStlsISt11char_traitsIcEERSt13basic_ostreamIcT_ES5_PKc
	movq	.refptr._ZSt4endlIcSt11char_traitsIcEERSt13basic_ostreamIT_T0_ES6_(%rip), %rdx
	movq	%rax, %rcx
	call	_ZNSolsEPFRSoS_E
	call	_Z3BELv
	movl	3716(%rbp), %eax
	imull	3724(%rbp), %eax
	movl	%eax, 3716(%rbp)
	movl	3700(%rbp), %eax
	imull	3724(%rbp), %eax
	movl	%eax, 3700(%rbp)
	addl	$1, 3704(%rbp)
	jmp	.L504
.L502:
	movzbl	cheatmode(%rip), %eax
	movzbl	%al, %eax
	testl	%eax, %eax
	jne	.L503
	movl	3716(%rbp), %eax
	subl	3712(%rbp), %eax
	testl	%eax, %eax
	jle	.L503
	leaq	.LC114(%rip), %rdx
	movq	.refptr._ZSt4cout(%rip), %rcx
	call	_ZStlsISt11char_traitsIcEERSt13basic_ostreamIcT_ES5_PKc
	movq	.refptr._ZSt4endlIcSt11char_traitsIcEERSt13basic_ostreamIT_T0_ES6_(%rip), %rdx
	movq	%rax, %rcx
	call	_ZNSolsEPFRSoS_E
	call	_Z3BELv
	jmp	.L504
.L503:
	leaq	.LC115(%rip), %rdx
	movq	.refptr._ZSt4cout(%rip), %rcx
	call	_ZStlsISt11char_traitsIcEERSt13basic_ostreamIcT_ES5_PKc
	movq	.refptr._ZSt4endlIcSt11char_traitsIcEERSt13basic_ostreamIT_T0_ES6_(%rip), %rdx
	movq	%rax, %rcx
	call	_ZNSolsEPFRSoS_E
	call	_Z3BELv
	jmp	.L504
.L495:
	leaq	.LC116(%rip), %rdx
	movq	.refptr._ZSt4cout(%rip), %rcx
	call	_ZStlsISt11char_traitsIcEERSt13basic_ostreamIcT_ES5_PKc
	movq	.refptr._ZSt4endlIcSt11char_traitsIcEERSt13basic_ostreamIT_T0_ES6_(%rip), %rdx
	movq	%rax, %rcx
	call	_ZNSolsEPFRSoS_E
.L504:
	cmpl	$0, 3708(%rbp)
	jne	.L672
	movq	.refptr._ZSt4endlIcSt11char_traitsIcEERSt13basic_ostreamIT_T0_ES6_(%rip), %rdx
	movq	.refptr._ZSt4cout(%rip), %rcx
	call	_ZNSolsEPFRSoS_E
	leaq	.LC117(%rip), %rdx
	movq	%rax, %rcx
	call	_ZStlsISt11char_traitsIcEERSt13basic_ostreamIcT_ES5_PKc
	leaq	_Z4nameB5cxx11(%rip), %rdx
	movq	%rax, %rcx
	call	_ZStlsIcSt11char_traitsIcESaIcEERSt13basic_ostreamIT_T0_ES7_RKNSt7__cxx1112basic_stringIS4_S5_T1_EE
	leaq	.LC118(%rip), %rdx
	movq	%rax, %rcx
	call	_ZStlsISt11char_traitsIcEERSt13basic_ostreamIcT_ES5_PKc
	movq	.refptr._ZSt4endlIcSt11char_traitsIcEERSt13basic_ostreamIT_T0_ES6_(%rip), %rdx
	movq	%rax, %rcx
	call	_ZNSolsEPFRSoS_E
.L510:
	leaq	.LC119(%rip), %rdx
	movq	.refptr._ZSt4cout(%rip), %rcx
	call	_ZStlsISt11char_traitsIcEERSt13basic_ostreamIcT_ES5_PKc
	movq	%rax, %rcx
	movl	3700(%rbp), %eax
	movl	%eax, %edx
	call	_ZNSolsEi
	leaq	.LC120(%rip), %rdx
	movq	%rax, %rcx
	call	_ZStlsISt11char_traitsIcEERSt13basic_ostreamIcT_ES5_PKc
	movq	%rax, %rcx
	movl	3704(%rbp), %eax
	movl	%eax, %edx
	call	_ZNSolsEi
	leaq	.LC121(%rip), %rdx
	movq	%rax, %rcx
	call	_ZStlsISt11char_traitsIcEERSt13basic_ostreamIcT_ES5_PKc
	movq	%rax, %rcx
	movl	3724(%rbp), %eax
	movl	%eax, %edx
	call	_ZNSolsEi
	leaq	.LC30(%rip), %rdx
	movq	%rax, %rcx
	call	_ZStlsISt11char_traitsIcEERSt13basic_ostreamIcT_ES5_PKc
	movq	.refptr._ZSt4endlIcSt11char_traitsIcEERSt13basic_ostreamIT_T0_ES6_(%rip), %rdx
	movq	%rax, %rcx
	call	_ZNSolsEPFRSoS_E
	leaq	.LC122(%rip), %rdx
	movq	.refptr._ZSt4cout(%rip), %rcx
	call	_ZStlsISt11char_traitsIcEERSt13basic_ostreamIcT_ES5_PKc
	movq	.refptr._ZSt4endlIcSt11char_traitsIcEERSt13basic_ostreamIT_T0_ES6_(%rip), %rdx
	movq	%rax, %rcx
	call	_ZNSolsEPFRSoS_E
	leaq	.LC123(%rip), %rdx
	movq	.refptr._ZSt4cout(%rip), %rcx
	call	_ZStlsISt11char_traitsIcEERSt13basic_ostreamIcT_ES5_PKc
	movq	.refptr._ZSt4endlIcSt11char_traitsIcEERSt13basic_ostreamIT_T0_ES6_(%rip), %rdx
	movq	%rax, %rcx
	call	_ZNSolsEPFRSoS_E
	leaq	1104(%rbp), %rax
	movq	%rax, %rdx
	movq	.refptr._ZSt3cin(%rip), %rcx
	call	_ZStrsIcSt11char_traitsIcESaIcEERSt13basic_istreamIT_T0_ES7_RNSt7__cxx1112basic_stringIS4_S5_T1_EE
	leaq	1104(%rbp), %rax
	leaq	.LC124(%rip), %rdx
	movq	%rax, %rcx
	call	_ZSteqIcSt11char_traitsIcESaIcEEbRKNSt7__cxx1112basic_stringIT_T0_T1_EEPKS5_
	testb	%al, %al
	je	.L506
	movb	$1, 3699(%rbp)
	call	_Z3BELv
	movl	$43, %edx
	movl	$1, %ecx
	call	_Z7randintii
	movl	%eax, 3632(%rbp)
	cmpl	$1, 3632(%rbp)
	jne	.L673
	movzbl	cheatmode(%rip), %eax
	movzbl	%al, %eax
	cmpl	$1, %eax
	je	.L673
	movl	$2, 3708(%rbp)
	jmp	.L673
.L506:
	leaq	1104(%rbp), %rax
	leaq	.LC125(%rip), %rdx
	movq	%rax, %rcx
	call	_ZSteqIcSt11char_traitsIcESaIcEEbRKNSt7__cxx1112basic_stringIT_T0_T1_EEPKS5_
	testb	%al, %al
	je	.L509
	movl	maxtries(%rip), %eax
	movl	%eax, 3720(%rbp)
	call	_Z3BELv
	jmp	.L508
.L509:
	leaq	.LC126(%rip), %rdx
	movq	.refptr._ZSt4cout(%rip), %rcx
	call	_ZStlsISt11char_traitsIcEERSt13basic_ostreamIcT_ES5_PKc
	movq	.refptr._ZSt4endlIcSt11char_traitsIcEERSt13basic_ostreamIT_T0_ES6_(%rip), %rdx
	movq	%rax, %rcx
	call	_ZNSolsEPFRSoS_E
	call	_Z3BELv
	jmp	.L510
.L673:
	nop
.L508:
	cmpl	$0, 3708(%rbp)
	jne	.L674
	movzbl	3699(%rbp), %eax
	cmpl	$1, %eax
	jne	.L513
	movq	.refptr._ZSt4endlIcSt11char_traitsIcEERSt13basic_ostreamIT_T0_ES6_(%rip), %rdx
	movq	.refptr._ZSt4cout(%rip), %rcx
	call	_ZNSolsEPFRSoS_E
	jmp	.L475
.L671:
	nop
	jmp	.L475
.L672:
	nop
	jmp	.L475
.L674:
	nop
.L475:
	cmpl	$0, 3708(%rbp)
	jne	.L514
	movq	.refptr._ZSt4endlIcSt11char_traitsIcEERSt13basic_ostreamIT_T0_ES6_(%rip), %rdx
	movq	.refptr._ZSt4cout(%rip), %rcx
	call	_ZNSolsEPFRSoS_E
	leaq	.LC127(%rip), %rdx
	movq	%rax, %rcx
	call	_ZStlsISt11char_traitsIcEERSt13basic_ostreamIcT_ES5_PKc
	leaq	_Z4nameB5cxx11(%rip), %rdx
	movq	%rax, %rcx
	call	_ZStlsIcSt11char_traitsIcESaIcEERSt13basic_ostreamIT_T0_ES7_RKNSt7__cxx1112basic_stringIS4_S5_T1_EE
	leaq	.LC128(%rip), %rdx
	movq	%rax, %rcx
	call	_ZStlsISt11char_traitsIcEERSt13basic_ostreamIcT_ES5_PKc
	call	_Z3BELv
	jmp	.L515
.L514:
	cmpl	$1, 3708(%rbp)
	jne	.L516
	movq	.refptr._ZSt4endlIcSt11char_traitsIcEERSt13basic_ostreamIT_T0_ES6_(%rip), %rdx
	movq	.refptr._ZSt4cout(%rip), %rcx
	call	_ZNSolsEPFRSoS_E
	leaq	_Z4nameB5cxx11(%rip), %rdx
	movq	%rax, %rcx
	call	_ZStlsIcSt11char_traitsIcESaIcEERSt13basic_ostreamIT_T0_ES7_RKNSt7__cxx1112basic_stringIS4_S5_T1_EE
	leaq	.LC129(%rip), %rdx
	movq	%rax, %rcx
	call	_ZStlsISt11char_traitsIcEERSt13basic_ostreamIcT_ES5_PKc
	call	_Z3DETv
	jmp	.L515
.L516:
	cmpl	$2, 3708(%rbp)
	jne	.L515
	movq	.refptr._ZSt4endlIcSt11char_traitsIcEERSt13basic_ostreamIT_T0_ES6_(%rip), %rdx
	movq	.refptr._ZSt4cout(%rip), %rcx
	call	_ZNSolsEPFRSoS_E
	leaq	_Z4nameB5cxx11(%rip), %rdx
	movq	%rax, %rcx
	call	_ZStlsIcSt11char_traitsIcESaIcEERSt13basic_ostreamIT_T0_ES7_RKNSt7__cxx1112basic_stringIS4_S5_T1_EE
	leaq	.LC130(%rip), %rdx
	movq	%rax, %rcx
	call	_ZStlsISt11char_traitsIcEERSt13basic_ostreamIcT_ES5_PKc
	call	_Z3DETv
.L515:
	movq	_Z5blankB5cxx11(%rip), %rax
	movq	%rax, %rdx
	movq	.refptr._ZSt3cin(%rip), %rcx
	call	_ZStrsIcSt11char_traitsIcESaIcEERSt13basic_istreamIT_T0_ES7_RNSt7__cxx1112basic_stringIS4_S5_T1_EE
	call	_Z3BELv
	movq	.refptr._ZSt4endlIcSt11char_traitsIcEERSt13basic_ostreamIT_T0_ES6_(%rip), %rdx
	movq	.refptr._ZSt4cout(%rip), %rcx
	call	_ZNSolsEPFRSoS_E
	leaq	.LC131(%rip), %rdx
	movq	%rax, %rcx
	call	_ZStlsISt11char_traitsIcEERSt13basic_ostreamIcT_ES5_PKc
	movq	%rax, %rbx
	leaq	3024(%rbp), %rax
	movq	%rax, %rcx
	call	_Z20whatisthetimeanddateB5cxx11v
.LEHE87:
	leaq	3024(%rbp), %rax
	movq	%rax, %rdx
	movq	%rbx, %rcx
.LEHB88:
	call	_ZStlsIcSt11char_traitsIcESaIcEERSt13basic_ostreamIT_T0_ES7_RKNSt7__cxx1112basic_stringIS4_S5_T1_EE
	movq	.refptr._ZSt4endlIcSt11char_traitsIcEERSt13basic_ostreamIT_T0_ES6_(%rip), %rdx
	movq	%rax, %rcx
	call	_ZNSolsEPFRSoS_E
.LEHE88:
	leaq	3024(%rbp), %rax
	movq	%rax, %rcx
	call	_ZNSt7__cxx1112basic_stringIcSt11char_traitsIcESaIcEED1Ev
	leaq	.LC132(%rip), %rdx
	movq	.refptr._ZSt4cout(%rip), %rcx
.LEHB89:
	call	_ZStlsISt11char_traitsIcEERSt13basic_ostreamIcT_ES5_PKc
	leaq	_Z4nameB5cxx11(%rip), %rdx
	movq	%rax, %rcx
	call	_ZStlsIcSt11char_traitsIcESaIcEERSt13basic_ostreamIT_T0_ES7_RKNSt7__cxx1112basic_stringIS4_S5_T1_EE
	movq	.refptr._ZSt4endlIcSt11char_traitsIcEERSt13basic_ostreamIT_T0_ES6_(%rip), %rdx
	movq	%rax, %rcx
	call	_ZNSolsEPFRSoS_E
	leaq	.LC133(%rip), %rdx
	movq	.refptr._ZSt4cout(%rip), %rcx
	call	_ZStlsISt11char_traitsIcEERSt13basic_ostreamIcT_ES5_PKc
	movq	%rax, %rcx
	movl	3700(%rbp), %eax
	movl	%eax, %edx
	call	_ZNSolsEi
	movq	.refptr._ZSt4endlIcSt11char_traitsIcEERSt13basic_ostreamIT_T0_ES6_(%rip), %rdx
	movq	%rax, %rcx
	call	_ZNSolsEPFRSoS_E
	leaq	.LC134(%rip), %rdx
	movq	.refptr._ZSt4cout(%rip), %rcx
	call	_ZStlsISt11char_traitsIcEERSt13basic_ostreamIcT_ES5_PKc
	movq	%rax, %rcx
	movl	3704(%rbp), %eax
	movl	%eax, %edx
	call	_ZNSolsEi
	movq	.refptr._ZSt4endlIcSt11char_traitsIcEERSt13basic_ostreamIT_T0_ES6_(%rip), %rdx
	movq	%rax, %rcx
	call	_ZNSolsEPFRSoS_E
	leaq	.LC135(%rip), %rdx
	movq	.refptr._ZSt4cout(%rip), %rcx
	call	_ZStlsISt11char_traitsIcEERSt13basic_ostreamIcT_ES5_PKc
	movq	%rax, %rcx
	movl	3716(%rbp), %eax
	movl	%eax, %edx
	call	_ZNSolsEi
	movq	.refptr._ZSt4endlIcSt11char_traitsIcEERSt13basic_ostreamIT_T0_ES6_(%rip), %rdx
	movq	%rax, %rcx
	call	_ZNSolsEPFRSoS_E
	leaq	.LC136(%rip), %rdx
	movq	.refptr._ZSt4cout(%rip), %rcx
	call	_ZStlsISt11char_traitsIcEERSt13basic_ostreamIcT_ES5_PKc
	movq	%rax, %rcx
	movl	3724(%rbp), %eax
	movl	%eax, %edx
	call	_ZNSolsEi
	movq	.refptr._ZSt4endlIcSt11char_traitsIcEERSt13basic_ostreamIT_T0_ES6_(%rip), %rdx
	movq	%rax, %rcx
	call	_ZNSolsEPFRSoS_E
	movq	_Z5blankB5cxx11(%rip), %rax
	movq	%rax, %rdx
	movq	.refptr._ZSt3cin(%rip), %rcx
	call	_ZStrsIcSt11char_traitsIcESaIcEERSt13basic_istreamIT_T0_ES7_RNSt7__cxx1112basic_stringIS4_S5_T1_EE
	call	_Z3BELv
	leaq	signal_exit_musix_thread(%rip), %rcx
	call	_ZNSt7promiseIvE9set_valueEv
	leaq	1096(%rbp), %rax
	movq	%rax, %rcx
	call	_ZNSt6thread4joinEv
	movq	.refptr._ZSt4endlIcSt11char_traitsIcEERSt13basic_ostreamIT_T0_ES6_(%rip), %rdx
	movq	.refptr._ZSt4cout(%rip), %rcx
	call	_ZNSolsEPFRSoS_E
.LEHE89:
.L541:
	movzbl	showstat(%rip), %eax
	xorl	$1, %eax
	testb	%al, %al
	jne	.L675
	leaq	3068(%rbp), %rax
	movq	%rax, %rcx
	call	_ZNSaIcEC1Ev
	leaq	3068(%rbp), %rdx
	leaq	-64(%rbp), %rax
	movq	%rdx, %r8
	leaq	.LC16(%rip), %rdx
	movq	%rax, %rcx
.LEHB90:
	call	_ZNSt7__cxx1112basic_stringIcSt11char_traitsIcESaIcEEC1EPKcRKS3_
.LEHE90:
	leaq	3068(%rbp), %rax
	movq	%rax, %rcx
	call	_ZNSaIcED1Ev
	leaq	.LC137(%rip), %rdx
	movq	.refptr._ZSt4cout(%rip), %rcx
.LEHB91:
	call	_ZStlsISt11char_traitsIcEERSt13basic_ostreamIcT_ES5_PKc
	movq	.refptr._ZSt4endlIcSt11char_traitsIcEERSt13basic_ostreamIT_T0_ES6_(%rip), %rdx
	movq	%rax, %rcx
	call	_ZNSolsEPFRSoS_E
	leaq	.LC138(%rip), %rdx
	movq	%rax, %rcx
	call	_ZStlsISt11char_traitsIcEERSt13basic_ostreamIcT_ES5_PKc
	movq	.refptr._ZSt4endlIcSt11char_traitsIcEERSt13basic_ostreamIT_T0_ES6_(%rip), %rdx
	movq	%rax, %rcx
	call	_ZNSolsEPFRSoS_E
	leaq	-64(%rbp), %rax
	movq	%rax, %rdx
	movq	.refptr._ZSt3cin(%rip), %rcx
	call	_ZStrsIcSt11char_traitsIcESaIcEERSt13basic_istreamIT_T0_ES7_RNSt7__cxx1112basic_stringIS4_S5_T1_EE
	leaq	-64(%rbp), %rax
	leaq	.LC139(%rip), %rdx
	movq	%rax, %rcx
	call	_ZSteqIcSt11char_traitsIcESaIcEEbRKNSt7__cxx1112basic_stringIT_T0_T1_EEPKS5_
	testb	%al, %al
	je	.L519
	leaq	464(%rbp), %rax
	movl	$8, %r8d
	leaq	_Z8filenameB5cxx11(%rip), %rdx
	movq	%rax, %rcx
	call	_ZNSt14basic_ifstreamIcSt11char_traitsIcEEC1ERKNSt7__cxx1112basic_stringIcS1_SaIcEEESt13_Ios_Openmode
.LEHE91:
	leaq	464(%rbp), %rax
	addq	$208, %rax
	movq	%rax, %rcx
.LEHB92:
	call	_ZNKSt9basic_iosIcSt11char_traitsIcEEcvbEv
	testb	%al, %al
	je	.L520
	movq	.refptr._ZSt4endlIcSt11char_traitsIcEERSt13basic_ostreamIT_T0_ES6_(%rip), %rdx
	movq	.refptr._ZSt4cout(%rip), %rcx
	call	_ZNSolsEPFRSoS_E
	leaq	.LC140(%rip), %rdx
	movq	%rax, %rcx
	call	_ZStlsISt11char_traitsIcEERSt13basic_ostreamIcT_ES5_PKc
	leaq	_Z8filenameB5cxx11(%rip), %rdx
	movq	%rax, %rcx
	call	_ZStlsIcSt11char_traitsIcESaIcEERSt13basic_ostreamIT_T0_ES7_RKNSt7__cxx1112basic_stringIS4_S5_T1_EE
	leaq	.LC141(%rip), %rdx
	movq	%rax, %rcx
	call	_ZStlsISt11char_traitsIcEERSt13basic_ostreamIcT_ES5_PKc
	movq	.refptr._ZSt4endlIcSt11char_traitsIcEERSt13basic_ostreamIT_T0_ES6_(%rip), %rdx
	movq	%rax, %rcx
	call	_ZNSolsEPFRSoS_E
.LEHE92:
	leaq	3069(%rbp), %rax
	movq	%rax, %rcx
	call	_ZNSaIcEC1Ev
	leaq	3069(%rbp), %rdx
	movq	%rbp, %rax
	movq	%rdx, %r8
	leaq	.LC16(%rip), %rdx
	movq	%rax, %rcx
.LEHB93:
	call	_ZNSt7__cxx1112basic_stringIcSt11char_traitsIcESaIcEEC1EPKcRKS3_
.LEHE93:
	leaq	3069(%rbp), %rax
	movq	%rax, %rcx
	call	_ZNSaIcED1Ev
	movq	%rbp, %rax
	movq	%rax, %rdx
	movq	.refptr._ZSt3cin(%rip), %rcx
.LEHB94:
	call	_ZStrsIcSt11char_traitsIcESaIcEERSt13basic_istreamIT_T0_ES7_RNSt7__cxx1112basic_stringIS4_S5_T1_EE
	movq	%rbp, %rax
	leaq	.LC139(%rip), %rdx
	movq	%rax, %rcx
	call	_ZSteqIcSt11char_traitsIcESaIcEEbRKNSt7__cxx1112basic_stringIT_T0_T1_EEPKS5_
	testb	%al, %al
	jne	.L521
	leaq	.LC142(%rip), %rdx
	movq	.refptr._ZSt4cout(%rip), %rcx
	call	_ZStlsISt11char_traitsIcEERSt13basic_ostreamIcT_ES5_PKc
	movq	.refptr._ZSt4endlIcSt11char_traitsIcEERSt13basic_ostreamIT_T0_ES6_(%rip), %rdx
	movq	%rax, %rcx
	call	_ZNSolsEPFRSoS_E
.LEHE94:
	movl	$0, %ebx
	jmp	.L522
.L521:
	movl	$1, %ebx
.L522:
	movq	%rbp, %rax
	movq	%rax, %rcx
	call	_ZNSt7__cxx1112basic_stringIcSt11char_traitsIcESaIcEED1Ev
	cmpl	$1, %ebx
	jne	.L525
	jmp	.L524
.L520:
	movq	.refptr._ZSt4endlIcSt11char_traitsIcEERSt13basic_ostreamIT_T0_ES6_(%rip), %rdx
	movq	.refptr._ZSt4cout(%rip), %rcx
.LEHB95:
	call	_ZNSolsEPFRSoS_E
	leaq	.LC143(%rip), %rdx
	movq	%rax, %rcx
	call	_ZStlsISt11char_traitsIcEERSt13basic_ostreamIcT_ES5_PKc
	leaq	_Z8filenameB5cxx11(%rip), %rdx
	movq	%rax, %rcx
	call	_ZStlsIcSt11char_traitsIcESaIcEERSt13basic_ostreamIT_T0_ES7_RKNSt7__cxx1112basic_stringIS4_S5_T1_EE
	leaq	.LC144(%rip), %rdx
	movq	%rax, %rcx
	call	_ZStlsISt11char_traitsIcEERSt13basic_ostreamIcT_ES5_PKc
	movq	.refptr._ZSt4endlIcSt11char_traitsIcEERSt13basic_ostreamIT_T0_ES6_(%rip), %rdx
	movq	%rax, %rcx
	call	_ZNSolsEPFRSoS_E
.LEHE95:
	leaq	3070(%rbp), %rax
	movq	%rax, %rcx
	call	_ZNSaIcEC1Ev
	leaq	3070(%rbp), %rdx
	movq	%rbp, %rax
	movq	%rdx, %r8
	leaq	.LC16(%rip), %rdx
	movq	%rax, %rcx
.LEHB96:
	call	_ZNSt7__cxx1112basic_stringIcSt11char_traitsIcESaIcEEC1EPKcRKS3_
.LEHE96:
	leaq	3070(%rbp), %rax
	movq	%rax, %rcx
	call	_ZNSaIcED1Ev
	movq	%rbp, %rax
	movq	%rax, %rdx
	movq	.refptr._ZSt3cin(%rip), %rcx
.LEHB97:
	call	_ZStrsIcSt11char_traitsIcESaIcEERSt13basic_istreamIT_T0_ES7_RNSt7__cxx1112basic_stringIS4_S5_T1_EE
	movq	%rbp, %rax
	leaq	.LC139(%rip), %rdx
	movq	%rax, %rcx
	call	_ZSteqIcSt11char_traitsIcESaIcEEbRKNSt7__cxx1112basic_stringIT_T0_T1_EEPKS5_
	testb	%al, %al
	jne	.L526
	leaq	.LC142(%rip), %rdx
	movq	.refptr._ZSt4cout(%rip), %rcx
	call	_ZStlsISt11char_traitsIcEERSt13basic_ostreamIcT_ES5_PKc
	movq	.refptr._ZSt4endlIcSt11char_traitsIcEERSt13basic_ostreamIT_T0_ES6_(%rip), %rdx
	movq	%rax, %rcx
	call	_ZNSolsEPFRSoS_E
.LEHE97:
	movl	$0, %ebx
	jmp	.L527
.L526:
	movl	$1, %ebx
.L527:
	movq	%rbp, %rax
	movq	%rax, %rcx
	call	_ZNSt7__cxx1112basic_stringIcSt11char_traitsIcESaIcEED1Ev
	cmpl	$1, %ebx
	jne	.L525
.L524:
	leaq	464(%rbp), %rax
	movq	%rax, %rcx
.LEHB98:
	call	_ZNSt14basic_ifstreamIcSt11char_traitsIcEE5closeEv
	movq	%rbp, %rax
	movq	%rax, %rcx
	call	_ZNSt14basic_ofstreamIcSt11char_traitsIcEEC1Ev
.LEHE98:
	movl	$32, %edx
	movl	$16, %ecx
	call	_ZStorSt13_Ios_OpenmodeS_
	movl	%eax, %edx
	movq	%rbp, %rax
	movl	%edx, %r8d
	leaq	_Z8filenameB5cxx11(%rip), %rdx
	movq	%rax, %rcx
.LEHB99:
	call	_ZNSt14basic_ofstreamIcSt11char_traitsIcEE4openERKNSt7__cxx1112basic_stringIcS1_SaIcEEESt13_Ios_Openmode
.LEHE99:
	leaq	3071(%rbp), %rax
	movq	%rax, %rcx
	call	_ZNSaIcEC1Ev
	leaq	3071(%rbp), %rdx
	leaq	-32(%rbp), %rax
	movq	%rdx, %r8
	leaq	.LC16(%rip), %rdx
	movq	%rax, %rcx
.LEHB100:
	call	_ZNSt7__cxx1112basic_stringIcSt11char_traitsIcESaIcEEC1EPKcRKS3_
.LEHE100:
	leaq	3071(%rbp), %rax
	movq	%rax, %rcx
	call	_ZNSaIcED1Ev
	movq	.refptr._ZSt4endlIcSt11char_traitsIcEERSt13basic_ostreamIT_T0_ES6_(%rip), %rdx
	movq	.refptr._ZSt4cout(%rip), %rcx
.LEHB101:
	call	_ZNSolsEPFRSoS_E
	leaq	.LC145(%rip), %rdx
	movq	%rax, %rcx
	call	_ZStlsISt11char_traitsIcEERSt13basic_ostreamIcT_ES5_PKc
	movq	.refptr._ZSt4endlIcSt11char_traitsIcEERSt13basic_ostreamIT_T0_ES6_(%rip), %rdx
	movq	%rax, %rcx
	call	_ZNSolsEPFRSoS_E
	cmpl	$2, 3708(%rbp)
	jne	.L529
	leaq	-32(%rbp), %rax
	leaq	.LC146(%rip), %rdx
	movq	%rax, %rcx
	call	_ZNSt7__cxx1112basic_stringIcSt11char_traitsIcESaIcEEaSEPKc
	jmp	.L530
.L529:
	cmpl	$1, 3708(%rbp)
	jne	.L531
	leaq	-32(%rbp), %rax
	leaq	.LC147(%rip), %rdx
	movq	%rax, %rcx
	call	_ZNSt7__cxx1112basic_stringIcSt11char_traitsIcESaIcEEaSEPKc
	jmp	.L530
.L531:
	cmpl	$0, 3708(%rbp)
	jne	.L532
	leaq	-32(%rbp), %rax
	leaq	.LC148(%rip), %rdx
	movq	%rax, %rcx
	call	_ZNSt7__cxx1112basic_stringIcSt11char_traitsIcESaIcEEaSEPKc
	jmp	.L530
.L532:
	leaq	-32(%rbp), %rax
	leaq	.LC149(%rip), %rdx
	movq	%rax, %rcx
	call	_ZNSt7__cxx1112basic_stringIcSt11char_traitsIcESaIcEEaSEPKc
.L530:
	movq	%rbp, %rax
	movq	%rax, %rcx
	call	_ZNSt14basic_ofstreamIcSt11char_traitsIcEE7is_openEv
	movzbl	%al, %eax
	cmpl	$1, %eax
	setne	%al
	testb	%al, %al
	je	.L533
	leaq	.LC150(%rip), %rdx
	movq	.refptr._ZSt4cerr(%rip), %rcx
	call	_ZStlsISt11char_traitsIcEERSt13basic_ostreamIcT_ES5_PKc
	movzbl	nolog(%rip), %eax
	movzbl	%al, %eax
	testl	%eax, %eax
	jne	.L676
	call	_ZN4plog3getILi0EEEPNS_6LoggerIXT_EEEv
	testq	%rax, %rax
	je	.L535
	call	_ZN4plog3getILi0EEEPNS_6LoggerIXT_EEEv
	movl	$2, %edx
	movq	%rax, %rcx
	call	_ZNK4plog6LoggerILi0EE13checkSeverityENS_8SeverityE
	xorl	$1, %eax
	testb	%al, %al
	je	.L536
.L535:
	movl	$1, %eax
	jmp	.L537
.L536:
	movl	$0, %eax
.L537:
	testb	%al, %al
	jne	.L676
	leaq	3072(%rbp), %rax
	movl	$0, 48(%rsp)
	movq	$0, 40(%rsp)
	leaq	.LC16(%rip), %rdx
	movq	%rdx, 32(%rsp)
	movl	$821, %r9d
	leaq	.LC75(%rip), %r8
	movl	$2, %edx
	movq	%rax, %rcx
	call	_ZN4plog6RecordC1ENS_8SeverityEPKcyS3_PKvi
.LEHE101:
	leaq	3072(%rbp), %rax
	movq	%rax, %rcx
	call	_ZN4plog6Record3refEv
	leaq	.LC151(%rip), %rdx
	movq	%rax, %rcx
.LEHB102:
	call	_ZN4plog6RecordlsIA25_cEERS0_RKT_
	movq	%rax, %rbx
	movq	%rbp, %rax
	movq	%rax, %rcx
	call	_ZNSt14basic_ofstreamIcSt11char_traitsIcEE7is_openEv
	movb	%al, 3599(%rbp)
	leaq	3599(%rbp), %rax
	movq	%rax, %rdx
	movq	%rbx, %rcx
	call	_ZN4plog6RecordlsIbEERS0_RKT_
	movq	%rax, %rbx
	call	_ZN4plog3getILi0EEEPNS_6LoggerIXT_EEEv
	movq	%rbx, %rdx
	movq	%rax, %rcx
	call	_ZN4plog6LoggerILi0EEpLERKNS_6RecordE
.LEHE102:
	leaq	3072(%rbp), %rax
	movq	%rax, %rcx
	call	_ZN4plog6RecordD1Ev
	jmp	.L676
.L533:
	movq	%rbp, %rax
	leaq	.LC131(%rip), %rdx
	movq	%rax, %rcx
.LEHB103:
	call	_ZStlsISt11char_traitsIcEERSt13basic_ostreamIcT_ES5_PKc
	movq	%rax, %rbx
	leaq	3600(%rbp), %rax
	movq	%rax, %rcx
	call	_Z20whatisthetimeanddateB5cxx11v
.LEHE103:
	leaq	3600(%rbp), %rax
	movq	%rax, %rdx
	movq	%rbx, %rcx
.LEHB104:
	call	_ZStlsIcSt11char_traitsIcESaIcEERSt13basic_ostreamIT_T0_ES7_RKNSt7__cxx1112basic_stringIS4_S5_T1_EE
	movq	.refptr._ZSt4endlIcSt11char_traitsIcEERSt13basic_ostreamIT_T0_ES6_(%rip), %rdx
	movq	%rax, %rcx
	call	_ZNSolsEPFRSoS_E
.LEHE104:
	leaq	3600(%rbp), %rax
	movq	%rax, %rcx
	call	_ZNSt7__cxx1112basic_stringIcSt11char_traitsIcESaIcEED1Ev
	movq	%rbp, %rax
	leaq	.LC152(%rip), %rdx
	movq	%rax, %rcx
.LEHB105:
	call	_ZStlsISt11char_traitsIcEERSt13basic_ostreamIcT_ES5_PKc
	movq	.refptr._ZSt4endlIcSt11char_traitsIcEERSt13basic_ostreamIT_T0_ES6_(%rip), %rdx
	movq	%rax, %rcx
	call	_ZNSolsEPFRSoS_E
	movq	%rbp, %rax
	leaq	.LC153(%rip), %rdx
	movq	%rax, %rcx
	call	_ZStlsISt11char_traitsIcEERSt13basic_ostreamIcT_ES5_PKc
	leaq	_Z4nameB5cxx11(%rip), %rdx
	movq	%rax, %rcx
	call	_ZStlsIcSt11char_traitsIcESaIcEERSt13basic_ostreamIT_T0_ES7_RKNSt7__cxx1112basic_stringIS4_S5_T1_EE
	movq	.refptr._ZSt4endlIcSt11char_traitsIcEERSt13basic_ostreamIT_T0_ES6_(%rip), %rdx
	movq	%rax, %rcx
	call	_ZNSolsEPFRSoS_E
	movq	%rbp, %rax
	leaq	.LC154(%rip), %rdx
	movq	%rax, %rcx
	call	_ZStlsISt11char_traitsIcEERSt13basic_ostreamIcT_ES5_PKc
	movq	%rax, %rcx
	leaq	-32(%rbp), %rax
	movq	%rax, %rdx
	call	_ZStlsIcSt11char_traitsIcESaIcEERSt13basic_ostreamIT_T0_ES7_RKNSt7__cxx1112basic_stringIS4_S5_T1_EE
	movq	.refptr._ZSt4endlIcSt11char_traitsIcEERSt13basic_ostreamIT_T0_ES6_(%rip), %rdx
	movq	%rax, %rcx
	call	_ZNSolsEPFRSoS_E
	movq	%rbp, %rax
	leaq	.LC155(%rip), %rdx
	movq	%rax, %rcx
	call	_ZStlsISt11char_traitsIcEERSt13basic_ostreamIcT_ES5_PKc
	movq	%rax, %rcx
	movzbl	cheatmode(%rip), %eax
	movzbl	%al, %eax
	movl	%eax, %edx
	call	_ZNSolsEb
	movq	.refptr._ZSt4endlIcSt11char_traitsIcEERSt13basic_ostreamIT_T0_ES6_(%rip), %rdx
	movq	%rax, %rcx
	call	_ZNSolsEPFRSoS_E
	movq	%rbp, %rax
	leaq	.LC133(%rip), %rdx
	movq	%rax, %rcx
	call	_ZStlsISt11char_traitsIcEERSt13basic_ostreamIcT_ES5_PKc
	movq	%rax, %rcx
	movl	3700(%rbp), %eax
	movl	%eax, %edx
	call	_ZNSolsEi
	movq	.refptr._ZSt4endlIcSt11char_traitsIcEERSt13basic_ostreamIT_T0_ES6_(%rip), %rdx
	movq	%rax, %rcx
	call	_ZNSolsEPFRSoS_E
	movq	%rbp, %rax
	leaq	.LC134(%rip), %rdx
	movq	%rax, %rcx
	call	_ZStlsISt11char_traitsIcEERSt13basic_ostreamIcT_ES5_PKc
	movq	%rax, %rcx
	movl	3704(%rbp), %eax
	movl	%eax, %edx
	call	_ZNSolsEi
	movq	.refptr._ZSt4endlIcSt11char_traitsIcEERSt13basic_ostreamIT_T0_ES6_(%rip), %rdx
	movq	%rax, %rcx
	call	_ZNSolsEPFRSoS_E
	movq	%rbp, %rax
	leaq	.LC156(%rip), %rdx
	movq	%rax, %rcx
	call	_ZStlsISt11char_traitsIcEERSt13basic_ostreamIcT_ES5_PKc
	movq	%rax, %rcx
	movl	3716(%rbp), %eax
	movl	%eax, %edx
	call	_ZNSolsEi
	movq	.refptr._ZSt4endlIcSt11char_traitsIcEERSt13basic_ostreamIT_T0_ES6_(%rip), %rdx
	movq	%rax, %rcx
	call	_ZNSolsEPFRSoS_E
	movq	%rbp, %rax
	leaq	.LC157(%rip), %rdx
	movq	%rax, %rcx
	call	_ZStlsISt11char_traitsIcEERSt13basic_ostreamIcT_ES5_PKc
	movq	%rax, %rcx
	movl	3712(%rbp), %eax
	movl	%eax, %edx
	call	_ZNSolsEi
	movq	.refptr._ZSt4endlIcSt11char_traitsIcEERSt13basic_ostreamIT_T0_ES6_(%rip), %rdx
	movq	%rax, %rcx
	call	_ZNSolsEPFRSoS_E
	movq	%rbp, %rax
	leaq	.LC136(%rip), %rdx
	movq	%rax, %rcx
	call	_ZStlsISt11char_traitsIcEERSt13basic_ostreamIcT_ES5_PKc
	movq	%rax, %rcx
	movl	3724(%rbp), %eax
	movl	%eax, %edx
	call	_ZNSolsEi
	movq	.refptr._ZSt4endlIcSt11char_traitsIcEERSt13basic_ostreamIT_T0_ES6_(%rip), %rdx
	movq	%rax, %rcx
	call	_ZNSolsEPFRSoS_E
	leaq	.LC158(%rip), %rdx
	movq	.refptr._ZSt4cout(%rip), %rcx
	call	_ZStlsISt11char_traitsIcEERSt13basic_ostreamIcT_ES5_PKc
	movq	%rbp, %rax
	movq	%rax, %rcx
	call	_ZNSt14basic_ofstreamIcSt11char_traitsIcEE5closeEv
.LEHE105:
	jmp	.L538
.L676:
	nop
.L538:
	leaq	-32(%rbp), %rax
	movq	%rax, %rcx
	call	_ZNSt7__cxx1112basic_stringIcSt11char_traitsIcESaIcEED1Ev
	movq	%rbp, %rax
	movq	%rax, %rcx
	call	_ZNSt14basic_ofstreamIcSt11char_traitsIcEED1Ev
.L525:
	leaq	464(%rbp), %rax
	movq	%rax, %rcx
	call	_ZNSt14basic_ifstreamIcSt11char_traitsIcEED1Ev
	movl	$0, %ebx
	jmp	.L539
.L519:
	leaq	-64(%rbp), %rax
	leaq	.LC159(%rip), %rdx
	movq	%rax, %rcx
	call	_ZSteqIcSt11char_traitsIcESaIcEEbRKNSt7__cxx1112basic_stringIT_T0_T1_EEPKS5_
	testb	%al, %al
	je	.L540
	movq	.refptr._ZSt4endlIcSt11char_traitsIcEERSt13basic_ostreamIT_T0_ES6_(%rip), %rdx
	movq	.refptr._ZSt4cout(%rip), %rcx
.LEHB106:
	call	_ZNSolsEPFRSoS_E
	leaq	.LC160(%rip), %rdx
	movq	%rax, %rcx
	call	_ZStlsISt11char_traitsIcEERSt13basic_ostreamIcT_ES5_PKc
	movl	$0, %ebx
	jmp	.L539
.L540:
	movq	.refptr._ZSt4endlIcSt11char_traitsIcEERSt13basic_ostreamIT_T0_ES6_(%rip), %rdx
	movq	.refptr._ZSt4cout(%rip), %rcx
	call	_ZNSolsEPFRSoS_E
	leaq	.LC126(%rip), %rdx
	movq	%rax, %rcx
	call	_ZStlsISt11char_traitsIcEERSt13basic_ostreamIcT_ES5_PKc
	movq	.refptr._ZSt4endlIcSt11char_traitsIcEERSt13basic_ostreamIT_T0_ES6_(%rip), %rdx
	movq	%rax, %rcx
	call	_ZNSolsEPFRSoS_E
.LEHE106:
	movl	$1, %ebx
.L539:
	leaq	-64(%rbp), %rax
	movq	%rax, %rcx
	call	_ZNSt7__cxx1112basic_stringIcSt11char_traitsIcESaIcEED1Ev
	cmpl	$1, %ebx
	jne	.L518
	jmp	.L541
.L675:
	nop
.L518:
	movq	.refptr._ZSt4endlIcSt11char_traitsIcEERSt13basic_ostreamIT_T0_ES6_(%rip), %rdx
	movq	.refptr._ZSt4cout(%rip), %rcx
.LEHB107:
	call	_ZNSolsEPFRSoS_E
	leaq	.LC161(%rip), %rdx
	movq	%rax, %rcx
	call	_ZStlsISt11char_traitsIcEERSt13basic_ostreamIcT_ES5_PKc
	call	_Z3BELv
	movq	_Z5blankB5cxx11(%rip), %rax
	movq	%rax, %rdx
	movq	.refptr._ZSt3cin(%rip), %rcx
	call	_ZStrsIcSt11char_traitsIcESaIcEERSt13basic_istreamIT_T0_ES7_RNSt7__cxx1112basic_stringIS4_S5_T1_EE
	call	_Z3BELv
	movq	_Z5blankB5cxx11(%rip), %rbx
	testq	%rbx, %rbx
	je	.L542
	movq	%rbx, %rcx
	call	_ZNSt7__cxx1112basic_stringIcSt11char_traitsIcESaIcEED1Ev
	movl	$32, %edx
	movq	%rbx, %rcx
	call	_ZdlPvy
.L542:
	call	_Z3BELv
.LEHE107:
	movl	$0, %edi
.L458:
	leaq	1056(%rbp), %rax
	movq	%rax, %rcx
	call	_ZNSt7__cxx1112basic_stringIcSt11char_traitsIcESaIcEED1Ev
	leaq	1096(%rbp), %rax
	movq	%rax, %rcx
	call	_ZNSt6threadD1Ev
.L451:
	leaq	1104(%rbp), %rax
	movq	%rax, %rcx
	call	_ZNSt7__cxx1112basic_stringIcSt11char_traitsIcESaIcEED1Ev
	leaq	1136(%rbp), %rbx
	addq	$192, %rbx
.L544:
	leaq	1136(%rbp), %rax
	cmpq	%rax, %rbx
	je	.L545
	subq	$32, %rbx
	movq	%rbx, %rcx
	call	_ZNSt7__cxx1112basic_stringIcSt11char_traitsIcESaIcEED1Ev
	jmp	.L544
.L545:
	movl	%edi, %eax
	jmp	.L668
.L618:
	movq	%rax, %rdi
	leaq	1336(%rbp), %rax
	movq	%rax, %rcx
	call	_ZNSaIcED1Ev
	jmp	.L547
.L619:
	movq	%rax, %rdi
	leaq	1337(%rbp), %rax
	movq	%rax, %rcx
	call	_ZNSaIcED1Ev
	jmp	.L547
.L620:
	movq	%rax, %rdi
	leaq	1338(%rbp), %rax
	movq	%rax, %rcx
	call	_ZNSaIcED1Ev
	jmp	.L547
.L621:
	movq	%rax, %rdi
	leaq	1339(%rbp), %rax
	movq	%rax, %rcx
	call	_ZNSaIcED1Ev
	jmp	.L547
.L622:
	movq	%rax, %rdi
	leaq	1340(%rbp), %rax
	movq	%rax, %rcx
	call	_ZNSaIcED1Ev
	jmp	.L547
.L623:
	movq	%rax, %rdi
	leaq	1341(%rbp), %rax
	movq	%rax, %rcx
	call	_ZNSaIcED1Ev
.L547:
	testq	%rsi, %rsi
	je	.L553
	movl	$5, %eax
	subq	%rbx, %rax
	salq	$5, %rax
	leaq	(%rsi,%rax), %rbx
.L554:
	cmpq	%rsi, %rbx
	je	.L553
	subq	$32, %rbx
	movq	%rbx, %rcx
	call	_ZNSt7__cxx1112basic_stringIcSt11char_traitsIcESaIcEED1Ev
	jmp	.L554
.L553:
	movq	%rdi, %rax
	movq	%rax, %rcx
.LEHB108:
	call	_Unwind_Resume
.LEHE108:
.L624:
	movq	%rax, %rbx
	leaq	1342(%rbp), %rax
	movq	%rax, %rcx
	call	_ZNSaIcED1Ev
	movq	%rbx, %rsi
	jmp	.L556
.L626:
	movq	%rax, %rbx
	leaq	1343(%rbp), %rax
	movq	%rax, %rcx
	call	_ZNSaIcED1Ev
	jmp	.L558
.L628:
	movq	%rax, %rbx
	leaq	1344(%rbp), %rax
	movq	%rax, %rcx
	call	_ZNSt7__cxx1112basic_stringIcSt11char_traitsIcESaIcEED1Ev
	jmp	.L560
.L627:
	movq	%rax, %rbx
.L560:
	leaq	1389(%rbp), %rax
	movq	%rax, %rcx
	call	_ZNSaIcED1Ev
	jmp	.L561
.L629:
	movq	%rax, %rbx
	leaq	1390(%rbp), %rax
	movq	%rax, %rcx
	call	_ZNSaIcED1Ev
	jmp	.L561
.L630:
	movq	%rax, %rbx
	leaq	464(%rbp), %rax
	movq	%rax, %rcx
	call	_ZNSt7__cxx1112basic_stringIcSt11char_traitsIcESaIcEED1Ev
	jmp	.L561
.L631:
	movq	%rax, %rbx
	leaq	1391(%rbp), %rax
	movq	%rax, %rcx
	call	_ZNSaIcED1Ev
	jmp	.L561
.L632:
	movq	%rax, %rbx
	leaq	464(%rbp), %rax
	movq	%rax, %rcx
	call	_ZNSt7__cxx1112basic_stringIcSt11char_traitsIcESaIcEED1Ev
	jmp	.L561
.L634:
	movq	%rax, %rbx
	leaq	1392(%rbp), %rax
	movq	%rax, %rcx
	call	_ZNSt7__cxx1112basic_stringIcSt11char_traitsIcESaIcEED1Ev
	jmp	.L567
.L633:
	movq	%rax, %rbx
.L567:
	leaq	1438(%rbp), %rax
	movq	%rax, %rcx
	call	_ZNSaIcED1Ev
.L561:
	movq	%rbp, %rax
	movq	%rax, %rcx
	call	_ZNSt7__cxx1112basic_stringIcSt11char_traitsIcESaIcEED1Ev
.L558:
	leaq	-32(%rbp), %rax
	movq	%rax, %rcx
	call	_ZNSt7__cxx1112basic_stringIcSt11char_traitsIcESaIcEED1Ev
	leaq	1024(%rbp), %rax
	movq	%rax, %rcx
	call	_ZNSt6vectorINSt7__cxx1112basic_stringIcSt11char_traitsIcESaIcEEESaIS5_EED1Ev
	jmp	.L568
.L636:
	movq	%rax, %rbx
	leaq	1439(%rbp), %rax
	movq	%rax, %rcx
	call	_ZNSaIcED1Ev
	jmp	.L570
.L638:
	movq	%rax, %rbx
	leaq	1440(%rbp), %rax
	movq	%rax, %rcx
	call	_ZN4plog6RecordD1Ev
	jmp	.L572
.L639:
	movq	%rax, %rbx
	leaq	1952(%rbp), %rax
	movq	%rax, %rcx
	call	_ZN4plog6RecordD1Ev
	jmp	.L572
.L640:
	movq	%rax, %rbx
	movq	%rdx, %rax
	cmpq	$1, %rax
	je	.L575
	cmpq	$2, %rax
	je	.L576
	jmp	.L669
.L575:
	movq	%rbx, %rax
	movq	%rax, %rcx
	call	__cxa_get_exception_ptr
	movq	%rax, %rdx
	leaq	1008(%rbp), %rax
	movq	%rax, %rcx
	call	_ZNSt16invalid_argumentC1ERKS_
	movq	%rbx, %rax
	movq	%rax, %rcx
	call	__cxa_begin_catch
	leaq	.LC162(%rip), %rdx
	movq	.refptr._ZSt4cout(%rip), %rcx
.LEHB109:
	call	_ZStlsISt11char_traitsIcEERSt13basic_ostreamIcT_ES5_PKc
	movq	.refptr._ZSt4endlIcSt11char_traitsIcEERSt13basic_ostreamIT_T0_ES6_(%rip), %rdx
	movq	%rax, %rcx
	call	_ZNSolsEPFRSoS_E
	call	_Z3BELv
.LEHE109:
	leaq	1008(%rbp), %rax
	movq	%rax, %rcx
	call	_ZNSt16invalid_argumentD1Ev
	call	__cxa_end_catch
	jmp	.L474
.L576:
	movq	%rbx, %rax
	movq	%rax, %rcx
	call	__cxa_get_exception_ptr
	movq	%rax, %rdx
	leaq	1000(%rbp), %rax
	movq	%rax, %rcx
	call	_ZN41AbigailSaphiroRuntimeThiccBreastExceptionC1ERKS_
	movq	%rbx, %rax
	movq	%rax, %rcx
	call	__cxa_begin_catch
.LEHB110:
	call	_Z3BELv
	leaq	1000(%rbp), %rax
	movq	%rax, %rcx
	call	_ZNK41AbigailSaphiroRuntimeThiccBreastException4whatEv
	movq	%rax, %rdx
	movq	.refptr._ZSt4cout(%rip), %rcx
	call	_ZStlsISt11char_traitsIcEERSt13basic_ostreamIcT_ES5_PKc
	movzbl	nolog(%rip), %eax
	movzbl	%al, %eax
	testl	%eax, %eax
	jne	.L579
	call	_ZN4plog3getILi0EEEPNS_6LoggerIXT_EEEv
	testq	%rax, %rax
	je	.L580
	call	_ZN4plog3getILi0EEEPNS_6LoggerIXT_EEEv
	movl	$1, %edx
	movq	%rax, %rcx
	call	_ZNK4plog6LoggerILi0EE13checkSeverityENS_8SeverityE
	xorl	$1, %eax
	testb	%al, %al
	je	.L581
.L580:
	movl	$1, %eax
	jmp	.L582
.L581:
	movl	$0, %eax
.L582:
	testb	%al, %al
	jne	.L579
	leaq	2464(%rbp), %rax
	movl	$0, 48(%rsp)
	movq	$0, 40(%rsp)
	leaq	.LC16(%rip), %rdx
	movq	%rdx, 32(%rsp)
	movl	$436, %r9d
	leaq	.LC75(%rip), %r8
	movl	$1, %edx
	movq	%rax, %rcx
	call	_ZN4plog6RecordC1ENS_8SeverityEPKcyS3_PKvi
.LEHE110:
	leaq	2464(%rbp), %rax
	movq	%rax, %rcx
	call	_ZN4plog6Record3refEv
	leaq	.LC163(%rip), %rdx
	movq	%rax, %rcx
.LEHB111:
	call	_ZN4plog6RecordlsIA40_cEERS0_RKT_
	movq	%rax, %rbx
	call	_ZN4plog3getILi0EEEPNS_6LoggerIXT_EEEv
	movq	%rbx, %rdx
	movq	%rax, %rcx
	call	_ZN4plog6LoggerILi0EEpLERKNS_6RecordE
.LEHE111:
	leaq	2464(%rbp), %rax
	movq	%rax, %rcx
	call	_ZN4plog6RecordD1Ev
.L579:
	movl	$8, %ecx
	call	__cxa_allocate_exception
	movq	%rax, %rbx
	leaq	ASRTBE(%rip), %rdx
	movq	%rbx, %rcx
	call	_ZN41AbigailSaphiroRuntimeThiccBreastExceptionC1ERKS_
	leaq	_ZN41AbigailSaphiroRuntimeThiccBreastExceptionD1Ev(%rip), %rax
	movq	%rax, %r8
	leaq	_ZTI41AbigailSaphiroRuntimeThiccBreastException(%rip), %rdx
	movq	%rbx, %rcx
.LEHB112:
	call	__cxa_throw
.LEHE112:
.L669:
	movq	%rbx, %rax
	movq	%rax, %rcx
	call	__cxa_begin_catch
.LEHB113:
	call	__cxa_end_catch
.LEHE113:
	jmp	.L578
.L641:
	movq	%rax, %rbx
	leaq	1008(%rbp), %rax
	movq	%rax, %rcx
	call	_ZNSt16invalid_argumentD1Ev
	call	__cxa_end_catch
	jmp	.L572
.L643:
	movq	%rax, %rbx
	leaq	2464(%rbp), %rax
	movq	%rax, %rcx
	call	_ZN4plog6RecordD1Ev
	jmp	.L585
.L642:
	movq	%rax, %rbx
.L585:
	leaq	1000(%rbp), %rax
	movq	%rax, %rcx
	call	_ZN41AbigailSaphiroRuntimeThiccBreastExceptionD1Ev
	call	__cxa_end_catch
	jmp	.L572
.L644:
	movq	%rax, %rbx
	movq	%rdx, %rax
	cmpq	$4, %rax
	je	.L587
	cmpq	$4, %rax
	jg	.L588
	cmpq	$1, %rax
	je	.L589
	cmpq	$2, %rax
	jne	.L588
	movq	%rbx, %rax
	movq	%rax, %rcx
	call	__cxa_get_exception_ptr
	movq	%rax, %rdx
	leaq	992(%rbp), %rax
	movq	%rax, %rcx
	call	_ZN41AbigailSaphiroRuntimeThiccBreastExceptionC1ERKS_
	movq	%rbx, %rax
	movq	%rax, %rcx
	call	__cxa_begin_catch
	movl	$8, %ecx
	call	__cxa_allocate_exception
	movq	%rax, %rbx
	leaq	ASRTBE(%rip), %rdx
	movq	%rbx, %rcx
	call	_ZN41AbigailSaphiroRuntimeThiccBreastExceptionC1ERKS_
	leaq	_ZN41AbigailSaphiroRuntimeThiccBreastExceptionD1Ev(%rip), %rax
	movq	%rax, %r8
	leaq	_ZTI41AbigailSaphiroRuntimeThiccBreastException(%rip), %rdx
	movq	%rbx, %rcx
.LEHB114:
	call	__cxa_throw
.LEHE114:
.L589:
	movq	%rbx, %rax
	movq	%rax, %rcx
	call	__cxa_get_exception_ptr
	movq	%rax, %rdx
	leaq	976(%rbp), %rax
	movq	%rax, %rcx
	call	_ZNSt16invalid_argumentC1ERKS_
	movq	%rbx, %rax
	movq	%rax, %rcx
	call	__cxa_begin_catch
	leaq	.LC162(%rip), %rdx
	movq	.refptr._ZSt4cout(%rip), %rcx
.LEHB115:
	call	_ZStlsISt11char_traitsIcEERSt13basic_ostreamIcT_ES5_PKc
	movq	.refptr._ZSt4endlIcSt11char_traitsIcEERSt13basic_ostreamIT_T0_ES6_(%rip), %rdx
	movq	%rax, %rcx
	call	_ZNSolsEPFRSoS_E
	call	_Z3BELv
.LEHE115:
	leaq	976(%rbp), %rax
	movq	%rax, %rcx
	call	_ZNSt16invalid_argumentD1Ev
	call	__cxa_end_catch
	jmp	.L590
.L587:
	movq	%rbx, %rax
	movq	%rax, %rcx
	call	__cxa_get_exception_ptr
	movq	%rax, %rdx
	leaq	968(%rbp), %rax
	movq	%rax, %rcx
	call	_ZNSt9exceptionC1ERKS_
	movq	%rbx, %rax
	movq	%rax, %rcx
	call	__cxa_begin_catch
	leaq	.LC164(%rip), %rdx
	movq	.refptr._ZSt4cout(%rip), %rcx
.LEHB116:
	call	_ZStlsISt11char_traitsIcEERSt13basic_ostreamIcT_ES5_PKc
	movq	.refptr._ZSt4endlIcSt11char_traitsIcEERSt13basic_ostreamIT_T0_ES6_(%rip), %rdx
	movq	%rax, %rcx
	call	_ZNSolsEPFRSoS_E
.LEHE116:
	leaq	968(%rbp), %rax
	movq	%rax, %rcx
	call	_ZNSt9exceptionD1Ev
	call	__cxa_end_catch
	jmp	.L590
.L588:
	movq	%rbx, %rax
	movq	%rax, %rcx
	call	__cxa_begin_catch
	leaq	.LC165(%rip), %rdx
	movq	.refptr._ZSt4cout(%rip), %rcx
.LEHB117:
	call	_ZStlsISt11char_traitsIcEERSt13basic_ostreamIcT_ES5_PKc
	movq	.refptr._ZSt4endlIcSt11char_traitsIcEERSt13basic_ostreamIT_T0_ES6_(%rip), %rdx
	movq	%rax, %rcx
	call	_ZNSolsEPFRSoS_E
.LEHE117:
.LEHB118:
	call	__cxa_end_catch
.LEHE118:
	jmp	.L590
.L645:
	movq	%rax, %rbx
	leaq	992(%rbp), %rax
	movq	%rax, %rcx
	call	_ZN41AbigailSaphiroRuntimeThiccBreastExceptionD1Ev
	call	__cxa_end_catch
	jmp	.L572
.L646:
	movq	%rax, %rbx
	leaq	976(%rbp), %rax
	movq	%rax, %rcx
	call	_ZNSt16invalid_argumentD1Ev
	call	__cxa_end_catch
	jmp	.L572
.L647:
	movq	%rax, %rbx
	leaq	968(%rbp), %rax
	movq	%rax, %rcx
	call	_ZNSt9exceptionD1Ev
	call	__cxa_end_catch
	jmp	.L572
.L648:
	movq	%rax, %rbx
	call	__cxa_end_catch
	jmp	.L572
.L649:
	movq	%rax, %rbx
	movq	%rdx, %rax
	cmpq	$1, %rax
	je	.L596
	cmpq	$4, %rax
	je	.L597
	jmp	.L670
.L596:
	movq	%rbx, %rax
	movq	%rax, %rcx
	call	__cxa_get_exception_ptr
	movq	%rax, %rdx
	leaq	944(%rbp), %rax
	movq	%rax, %rcx
	call	_ZNSt16invalid_argumentC1ERKS_
	movq	%rbx, %rax
	movq	%rax, %rcx
	call	__cxa_begin_catch
	leaq	.LC108(%rip), %rdx
	movq	.refptr._ZSt4cout(%rip), %rcx
.LEHB119:
	call	_ZStlsISt11char_traitsIcEERSt13basic_ostreamIcT_ES5_PKc
.LEHE119:
	leaq	944(%rbp), %rax
	movq	%rax, %rcx
	call	_ZNSt16invalid_argumentD1Ev
	call	__cxa_end_catch
	jmp	.L493
.L597:
	movq	%rbx, %rax
	movq	%rax, %rcx
	call	__cxa_get_exception_ptr
	movq	%rax, %rdx
	leaq	936(%rbp), %rax
	movq	%rax, %rcx
	call	_ZNSt9exceptionC1ERKS_
	movq	%rbx, %rax
	movq	%rax, %rcx
	call	__cxa_begin_catch
	leaq	.LC108(%rip), %rdx
	movq	.refptr._ZSt4cout(%rip), %rcx
.LEHB120:
	call	_ZStlsISt11char_traitsIcEERSt13basic_ostreamIcT_ES5_PKc
.LEHE120:
	leaq	936(%rbp), %rax
	movq	%rax, %rcx
	call	_ZNSt9exceptionD1Ev
	call	__cxa_end_catch
	jmp	.L493
.L670:
	movq	%rbx, %rax
	movq	%rax, %rcx
	call	__cxa_begin_catch
	leaq	.LC108(%rip), %rdx
	movq	.refptr._ZSt4cout(%rip), %rcx
.LEHB121:
	call	_ZStlsISt11char_traitsIcEERSt13basic_ostreamIcT_ES5_PKc
.LEHE121:
.LEHB122:
	call	__cxa_end_catch
.LEHE122:
	jmp	.L493
.L650:
	movq	%rax, %rbx
	leaq	944(%rbp), %rax
	movq	%rax, %rcx
	call	_ZNSt16invalid_argumentD1Ev
	call	__cxa_end_catch
	jmp	.L572
.L651:
	movq	%rax, %rbx
	leaq	936(%rbp), %rax
	movq	%rax, %rcx
	call	_ZNSt9exceptionD1Ev
	call	__cxa_end_catch
	jmp	.L572
.L652:
	movq	%rax, %rbx
	call	__cxa_end_catch
	jmp	.L572
.L653:
	movq	%rax, %rbx
	leaq	464(%rbp), %rax
	movq	%rax, %rcx
	call	_ZNSt7__cxx1112basic_stringIcSt11char_traitsIcESaIcEED1Ev
	jmp	.L572
.L654:
	movq	%rax, %rbx
	leaq	3024(%rbp), %rax
	movq	%rax, %rcx
	call	_ZNSt7__cxx1112basic_stringIcSt11char_traitsIcESaIcEED1Ev
	jmp	.L572
.L655:
	movq	%rax, %rbx
	leaq	3068(%rbp), %rax
	movq	%rax, %rcx
	call	_ZNSaIcED1Ev
	jmp	.L572
.L658:
	movq	%rax, %rbx
	leaq	3069(%rbp), %rax
	movq	%rax, %rcx
	call	_ZNSaIcED1Ev
	jmp	.L606
.L659:
	movq	%rax, %rbx
	movq	%rbp, %rax
	movq	%rax, %rcx
	call	_ZNSt7__cxx1112basic_stringIcSt11char_traitsIcESaIcEED1Ev
	jmp	.L606
.L660:
	movq	%rax, %rbx
	leaq	3070(%rbp), %rax
	movq	%rax, %rcx
	call	_ZNSaIcED1Ev
	jmp	.L606
.L661:
	movq	%rax, %rbx
	movq	%rbp, %rax
	movq	%rax, %rcx
	call	_ZNSt7__cxx1112basic_stringIcSt11char_traitsIcESaIcEED1Ev
	jmp	.L606
.L663:
	movq	%rax, %rbx
	leaq	3071(%rbp), %rax
	movq	%rax, %rcx
	call	_ZNSaIcED1Ev
	jmp	.L611
.L665:
	movq	%rax, %rbx
	leaq	3072(%rbp), %rax
	movq	%rax, %rcx
	call	_ZN4plog6RecordD1Ev
	jmp	.L613
.L666:
	movq	%rax, %rbx
	leaq	3600(%rbp), %rax
	movq	%rax, %rcx
	call	_ZNSt7__cxx1112basic_stringIcSt11char_traitsIcESaIcEED1Ev
	jmp	.L613
.L664:
	movq	%rax, %rbx
.L613:
	leaq	-32(%rbp), %rax
	movq	%rax, %rcx
	call	_ZNSt7__cxx1112basic_stringIcSt11char_traitsIcESaIcEED1Ev
	jmp	.L611
.L662:
	movq	%rax, %rbx
.L611:
	movq	%rbp, %rax
	movq	%rax, %rcx
	call	_ZNSt14basic_ofstreamIcSt11char_traitsIcEED1Ev
	jmp	.L606
.L657:
	movq	%rax, %rbx
.L606:
	leaq	464(%rbp), %rax
	movq	%rax, %rcx
	call	_ZNSt14basic_ifstreamIcSt11char_traitsIcEED1Ev
	jmp	.L615
.L656:
	movq	%rax, %rbx
.L615:
	leaq	-64(%rbp), %rax
	movq	%rax, %rcx
	call	_ZNSt7__cxx1112basic_stringIcSt11char_traitsIcESaIcEED1Ev
	jmp	.L572
.L637:
	movq	%rax, %rbx
.L572:
	leaq	1056(%rbp), %rax
	movq	%rax, %rcx
	call	_ZNSt7__cxx1112basic_stringIcSt11char_traitsIcESaIcEED1Ev
	jmp	.L570
.L635:
	movq	%rax, %rbx
.L570:
	leaq	1096(%rbp), %rax
	movq	%rax, %rcx
	call	_ZNSt6threadD1Ev
	jmp	.L568
.L625:
	movq	%rax, %rbx
.L568:
	leaq	1104(%rbp), %rax
	movq	%rax, %rcx
	call	_ZNSt7__cxx1112basic_stringIcSt11char_traitsIcESaIcEED1Ev
	movq	%rbx, %rsi
.L556:
	leaq	1136(%rbp), %rbx
	addq	$192, %rbx
.L617:
	leaq	1136(%rbp), %rax
	cmpq	%rax, %rbx
	je	.L616
	subq	$32, %rbx
	movq	%rbx, %rcx
	call	_ZNSt7__cxx1112basic_stringIcSt11char_traitsIcESaIcEED1Ev
	jmp	.L617
.L616:
	movq	%rsi, %rax
	movq	%rax, %rcx
.LEHB123:
	call	_Unwind_Resume
.LEHE123:
.L668:
	addq	$3856, %rsp
	popq	%rbx
	popq	%rsi
	popq	%rdi
	popq	%r12
	popq	%rbp
	ret
	.seh_handler	__gxx_personality_seh0, @unwind, @except
	.seh_handlerdata
	.align 4
.LLSDA15720:
	.byte	0xff
	.byte	0x9b
	.uleb128 .LLSDATT15720-.LLSDATTD15720
.LLSDATTD15720:
	.byte	0x1
	.uleb128 .LLSDACSE15720-.LLSDACSB15720
.LLSDACSB15720:
	.uleb128 .LEHB54-.LFB15720
	.uleb128 .LEHE54-.LEHB54
	.uleb128 0
	.uleb128 0
	.uleb128 .LEHB55-.LFB15720
	.uleb128 .LEHE55-.LEHB55
	.uleb128 .L618-.LFB15720
	.uleb128 0
	.uleb128 .LEHB56-.LFB15720
	.uleb128 .LEHE56-.LEHB56
	.uleb128 .L619-.LFB15720
	.uleb128 0
	.uleb128 .LEHB57-.LFB15720
	.uleb128 .LEHE57-.LEHB57
	.uleb128 .L620-.LFB15720
	.uleb128 0
	.uleb128 .LEHB58-.LFB15720
	.uleb128 .LEHE58-.LEHB58
	.uleb128 .L621-.LFB15720
	.uleb128 0
	.uleb128 .LEHB59-.LFB15720
	.uleb128 .LEHE59-.LEHB59
	.uleb128 .L622-.LFB15720
	.uleb128 0
	.uleb128 .LEHB60-.LFB15720
	.uleb128 .LEHE60-.LEHB60
	.uleb128 .L623-.LFB15720
	.uleb128 0
	.uleb128 .LEHB61-.LFB15720
	.uleb128 .LEHE61-.LEHB61
	.uleb128 .L624-.LFB15720
	.uleb128 0
	.uleb128 .LEHB62-.LFB15720
	.uleb128 .LEHE62-.LEHB62
	.uleb128 .L625-.LFB15720
	.uleb128 0
	.uleb128 .LEHB63-.LFB15720
	.uleb128 .LEHE63-.LEHB63
	.uleb128 .L626-.LFB15720
	.uleb128 0
	.uleb128 .LEHB64-.LFB15720
	.uleb128 .LEHE64-.LEHB64
	.uleb128 .L627-.LFB15720
	.uleb128 0
	.uleb128 .LEHB65-.LFB15720
	.uleb128 .LEHE65-.LEHB65
	.uleb128 .L628-.LFB15720
	.uleb128 0
	.uleb128 .LEHB66-.LFB15720
	.uleb128 .LEHE66-.LEHB66
	.uleb128 .L629-.LFB15720
	.uleb128 0
	.uleb128 .LEHB67-.LFB15720
	.uleb128 .LEHE67-.LEHB67
	.uleb128 .L630-.LFB15720
	.uleb128 0
	.uleb128 .LEHB68-.LFB15720
	.uleb128 .LEHE68-.LEHB68
	.uleb128 .L631-.LFB15720
	.uleb128 0
	.uleb128 .LEHB69-.LFB15720
	.uleb128 .LEHE69-.LEHB69
	.uleb128 .L632-.LFB15720
	.uleb128 0
	.uleb128 .LEHB70-.LFB15720
	.uleb128 .LEHE70-.LEHB70
	.uleb128 .L633-.LFB15720
	.uleb128 0
	.uleb128 .LEHB71-.LFB15720
	.uleb128 .LEHE71-.LEHB71
	.uleb128 .L634-.LFB15720
	.uleb128 0
	.uleb128 .LEHB72-.LFB15720
	.uleb128 .LEHE72-.LEHB72
	.uleb128 .L625-.LFB15720
	.uleb128 0
	.uleb128 .LEHB73-.LFB15720
	.uleb128 .LEHE73-.LEHB73
	.uleb128 .L635-.LFB15720
	.uleb128 0
	.uleb128 .LEHB74-.LFB15720
	.uleb128 .LEHE74-.LEHB74
	.uleb128 .L636-.LFB15720
	.uleb128 0
	.uleb128 .LEHB75-.LFB15720
	.uleb128 .LEHE75-.LEHB75
	.uleb128 .L637-.LFB15720
	.uleb128 0
	.uleb128 .LEHB76-.LFB15720
	.uleb128 .LEHE76-.LEHB76
	.uleb128 .L638-.LFB15720
	.uleb128 0
	.uleb128 .LEHB77-.LFB15720
	.uleb128 .LEHE77-.LEHB77
	.uleb128 .L637-.LFB15720
	.uleb128 0
	.uleb128 .LEHB78-.LFB15720
	.uleb128 .LEHE78-.LEHB78
	.uleb128 .L639-.LFB15720
	.uleb128 0
	.uleb128 .LEHB79-.LFB15720
	.uleb128 .LEHE79-.LEHB79
	.uleb128 .L637-.LFB15720
	.uleb128 0
	.uleb128 .LEHB80-.LFB15720
	.uleb128 .LEHE80-.LEHB80
	.uleb128 .L640-.LFB15720
	.uleb128 0x5
	.uleb128 .LEHB81-.LFB15720
	.uleb128 .LEHE81-.LEHB81
	.uleb128 .L637-.LFB15720
	.uleb128 0
	.uleb128 .LEHB82-.LFB15720
	.uleb128 .LEHE82-.LEHB82
	.uleb128 .L644-.LFB15720
	.uleb128 0xb
	.uleb128 .LEHB83-.LFB15720
	.uleb128 .LEHE83-.LEHB83
	.uleb128 .L637-.LFB15720
	.uleb128 0
	.uleb128 .LEHB84-.LFB15720
	.uleb128 .LEHE84-.LEHB84
	.uleb128 .L649-.LFB15720
	.uleb128 0x9
	.uleb128 .LEHB85-.LFB15720
	.uleb128 .LEHE85-.LEHB85
	.uleb128 .L637-.LFB15720
	.uleb128 0
	.uleb128 .LEHB86-.LFB15720
	.uleb128 .LEHE86-.LEHB86
	.uleb128 .L653-.LFB15720
	.uleb128 0
	.uleb128 .LEHB87-.LFB15720
	.uleb128 .LEHE87-.LEHB87
	.uleb128 .L637-.LFB15720
	.uleb128 0
	.uleb128 .LEHB88-.LFB15720
	.uleb128 .LEHE88-.LEHB88
	.uleb128 .L654-.LFB15720
	.uleb128 0
	.uleb128 .LEHB89-.LFB15720
	.uleb128 .LEHE89-.LEHB89
	.uleb128 .L637-.LFB15720
	.uleb128 0
	.uleb128 .LEHB90-.LFB15720
	.uleb128 .LEHE90-.LEHB90
	.uleb128 .L655-.LFB15720
	.uleb128 0
	.uleb128 .LEHB91-.LFB15720
	.uleb128 .LEHE91-.LEHB91
	.uleb128 .L656-.LFB15720
	.uleb128 0
	.uleb128 .LEHB92-.LFB15720
	.uleb128 .LEHE92-.LEHB92
	.uleb128 .L657-.LFB15720
	.uleb128 0
	.uleb128 .LEHB93-.LFB15720
	.uleb128 .LEHE93-.LEHB93
	.uleb128 .L658-.LFB15720
	.uleb128 0
	.uleb128 .LEHB94-.LFB15720
	.uleb128 .LEHE94-.LEHB94
	.uleb128 .L659-.LFB15720
	.uleb128 0
	.uleb128 .LEHB95-.LFB15720
	.uleb128 .LEHE95-.LEHB95
	.uleb128 .L657-.LFB15720
	.uleb128 0
	.uleb128 .LEHB96-.LFB15720
	.uleb128 .LEHE96-.LEHB96
	.uleb128 .L660-.LFB15720
	.uleb128 0
	.uleb128 .LEHB97-.LFB15720
	.uleb128 .LEHE97-.LEHB97
	.uleb128 .L661-.LFB15720
	.uleb128 0
	.uleb128 .LEHB98-.LFB15720
	.uleb128 .LEHE98-.LEHB98
	.uleb128 .L657-.LFB15720
	.uleb128 0
	.uleb128 .LEHB99-.LFB15720
	.uleb128 .LEHE99-.LEHB99
	.uleb128 .L662-.LFB15720
	.uleb128 0
	.uleb128 .LEHB100-.LFB15720
	.uleb128 .LEHE100-.LEHB100
	.uleb128 .L663-.LFB15720
	.uleb128 0
	.uleb128 .LEHB101-.LFB15720
	.uleb128 .LEHE101-.LEHB101
	.uleb128 .L664-.LFB15720
	.uleb128 0
	.uleb128 .LEHB102-.LFB15720
	.uleb128 .LEHE102-.LEHB102
	.uleb128 .L665-.LFB15720
	.uleb128 0
	.uleb128 .LEHB103-.LFB15720
	.uleb128 .LEHE103-.LEHB103
	.uleb128 .L664-.LFB15720
	.uleb128 0
	.uleb128 .LEHB104-.LFB15720
	.uleb128 .LEHE104-.LEHB104
	.uleb128 .L666-.LFB15720
	.uleb128 0
	.uleb128 .LEHB105-.LFB15720
	.uleb128 .LEHE105-.LEHB105
	.uleb128 .L664-.LFB15720
	.uleb128 0
	.uleb128 .LEHB106-.LFB15720
	.uleb128 .LEHE106-.LEHB106
	.uleb128 .L656-.LFB15720
	.uleb128 0
	.uleb128 .LEHB107-.LFB15720
	.uleb128 .LEHE107-.LEHB107
	.uleb128 .L637-.LFB15720
	.uleb128 0
	.uleb128 .LEHB108-.LFB15720
	.uleb128 .LEHE108-.LEHB108
	.uleb128 0
	.uleb128 0
	.uleb128 .LEHB109-.LFB15720
	.uleb128 .LEHE109-.LEHB109
	.uleb128 .L641-.LFB15720
	.uleb128 0
	.uleb128 .LEHB110-.LFB15720
	.uleb128 .LEHE110-.LEHB110
	.uleb128 .L642-.LFB15720
	.uleb128 0
	.uleb128 .LEHB111-.LFB15720
	.uleb128 .LEHE111-.LEHB111
	.uleb128 .L643-.LFB15720
	.uleb128 0
	.uleb128 .LEHB112-.LFB15720
	.uleb128 .LEHE112-.LEHB112
	.uleb128 .L642-.LFB15720
	.uleb128 0
	.uleb128 .LEHB113-.LFB15720
	.uleb128 .LEHE113-.LEHB113
	.uleb128 .L637-.LFB15720
	.uleb128 0
	.uleb128 .LEHB114-.LFB15720
	.uleb128 .LEHE114-.LEHB114
	.uleb128 .L645-.LFB15720
	.uleb128 0
	.uleb128 .LEHB115-.LFB15720
	.uleb128 .LEHE115-.LEHB115
	.uleb128 .L646-.LFB15720
	.uleb128 0
	.uleb128 .LEHB116-.LFB15720
	.uleb128 .LEHE116-.LEHB116
	.uleb128 .L647-.LFB15720
	.uleb128 0
	.uleb128 .LEHB117-.LFB15720
	.uleb128 .LEHE117-.LEHB117
	.uleb128 .L648-.LFB15720
	.uleb128 0
	.uleb128 .LEHB118-.LFB15720
	.uleb128 .LEHE118-.LEHB118
	.uleb128 .L637-.LFB15720
	.uleb128 0
	.uleb128 .LEHB119-.LFB15720
	.uleb128 .LEHE119-.LEHB119
	.uleb128 .L650-.LFB15720
	.uleb128 0
	.uleb128 .LEHB120-.LFB15720
	.uleb128 .LEHE120-.LEHB120
	.uleb128 .L651-.LFB15720
	.uleb128 0
	.uleb128 .LEHB121-.LFB15720
	.uleb128 .LEHE121-.LEHB121
	.uleb128 .L652-.LFB15720
	.uleb128 0
	.uleb128 .LEHB122-.LFB15720
	.uleb128 .LEHE122-.LEHB122
	.uleb128 .L637-.LFB15720
	.uleb128 0
	.uleb128 .LEHB123-.LFB15720
	.uleb128 .LEHE123-.LEHB123
	.uleb128 0
	.uleb128 0
.LLSDACSE15720:
	.byte	0x3
	.byte	0
	.byte	0x2
	.byte	0x7d
	.byte	0x1
	.byte	0x7d
	.byte	0x4
	.byte	0x79
	.byte	0x1
	.byte	0x7d
	.byte	0x2
	.byte	0x7d
	.align 4
	.long	.LDFCM0-.
	.long	0

	.long	.LDFCM1-.
	.long	.LDFCM2-.
.LLSDATT15720:
	.text
	.seh_endproc
	.section	.text$_ZZN9__gnu_cxx6__stoaIlicJiEEET0_PFT_PKT1_PPS3_DpT2_EPKcS5_PyS9_EN11_Save_errnoC1Ev,"x"
	.linkonce discard
	.align 2
	.globl	_ZZN9__gnu_cxx6__stoaIlicJiEEET0_PFT_PKT1_PPS3_DpT2_EPKcS5_PyS9_EN11_Save_errnoC1Ev
	.def	_ZZN9__gnu_cxx6__stoaIlicJiEEET0_PFT_PKT1_PPS3_DpT2_EPKcS5_PyS9_EN11_Save_errnoC1Ev;	.scl	2;	.type	32;	.endef
	.seh_proc	_ZZN9__gnu_cxx6__stoaIlicJiEEET0_PFT_PKT1_PPS3_DpT2_EPKcS5_PyS9_EN11_Save_errnoC1Ev
_ZZN9__gnu_cxx6__stoaIlicJiEEET0_PFT_PKT1_PPS3_DpT2_EPKcS5_PyS9_EN11_Save_errnoC1Ev:
.LFB15741:
	pushq	%rbp
	.seh_pushreg	%rbp
	movq	%rsp, %rbp
	.seh_setframe	%rbp, 0
	subq	$32, %rsp
	.seh_stackalloc	32
	.seh_endprologue
	movq	%rcx, 16(%rbp)
	movq	__imp__errno(%rip), %rax
	call	*%rax
	movl	(%rax), %edx
	movq	16(%rbp), %rax
	movl	%edx, (%rax)
	movq	__imp__errno(%rip), %rax
	call	*%rax
